gpasm-1.5.0 #1285 (Sep 12 2016) obj\Debug\PB_   8-4-2020  19:47:27          PAGE  1


LOC    OBJECT CODE    LINE  SOURCE TEXT
  VALUE

                      00001 ;--------------------------------------------------------
                      00002 ; File Created by SDCC : free open source ANSI-C Compiler
                      00003 ; Version 4.0.0 #11528 (MINGW64)
                      00004 ;--------------------------------------------------------
                      00005 ; PIC port for the 14-bit core
                      00006 ;--------------------------------------------------------
                      00007         .file   "PB_driver.c"
                      00008         list    p=16f877a
                      00009         radix dec
                      00010         include "p16f877a.inc"
                      00001         LIST
                      00002 
                      00003 ;==========================================================================
                      00004 ; Build date : Oct 21 2015
                      00005 ;  MPASM PIC16F877A processor include
                      00006 ; 
                      00007 ;  (c) Copyright 1999-2015 Microchip Technology, All rights reserved
                      00008 ;==========================================================================
                      00009 
                      00567         LIST
                      00011 ;--------------------------------------------------------
                      00012 ; external declarations
                      00013 ;--------------------------------------------------------
  0000                00014         extern  __muluchar
  0000                00015         extern  _GPIO_GET_PORT_STATE
  0000                00016         extern  _GPIO_INIT_PORT_PIN
                      00017 
  0000                00018         extern PSAVE
  0000                00019         extern SSAVE
  0000                00020         extern WSAVE
  0000                00021         extern STK12
  0000                00022         extern STK11
  0000                00023         extern STK10
  0000                00024         extern STK09
  0000                00025         extern STK08
  0000                00026         extern STK07
  0000                00027         extern STK06
  0000                00028         extern STK05
  0000                00029         extern STK04
  0000                00030         extern STK03
  0000                00031         extern STK02
  0000                00032         extern STK01
  0000                00033         extern STK00
                      00034 ;--------------------------------------------------------
                      00035 ; global declarations
                      00036 ;--------------------------------------------------------
  0000                00037         global  _PB_DRIVER_INIT
  0000                00038         global  _PB_DRIVER_UPDATE
  0000                00039         global  _PB_DRIVER_GET_STATE
                      00040 
                      00041 ;--------------------------------------------------------
                      00042 ; global definitions
                      00043 ;--------------------------------------------------------
gpasm-1.5.0 #1285 (Sep 12 2016) obj\Debug\PB_   8-4-2020  19:47:27          PAGE  2


LOC    OBJECT CODE    LINE  SOURCE TEXT
  VALUE

                      00044 UD_PB_driver_0  udata
                      00045 ; FPB_driver_arr_0_0 == .
0000                  00046 _arr    res     12
                      00047 
                      00048 ;--------------------------------------------------------
                      00049 ; absolute symbol definitions
                      00050 ;--------------------------------------------------------
                      00051 ;--------------------------------------------------------
                      00052 ; compiler-defined variables
                      00053 ;--------------------------------------------------------
                      00054 UDL_PB_driver_0 udata
0000                  00055 r0x101B res     1
0001                  00056 r0x101C res     1
0002                  00057 r0x101D res     1
0003                  00058 r0x101E res     1
0004                  00059 r0x101F res     1
0005                  00060 r0x1020 res     1
0006                  00061 r0x100F res     1
0007                  00062 r0x1010 res     1
0008                  00063 r0x1011 res     1
0009                  00064 r0x1012 res     1
000A                  00065 r0x1013 res     1
000B                  00066 r0x1014 res     1
000C                  00067 r0x1015 res     1
000D                  00068 r0x1016 res     1
000E                  00069 r0x1017 res     1
000F                  00070 r0x1018 res     1
0010                  00071 r0x1019 res     1
0011                  00072 r0x101A res     1
0012                  00073 r0x100C res     1
0013                  00074 r0x100D res     1
                      00075 ;--------------------------------------------------------
                      00076 ; initialized data
                      00077 ;--------------------------------------------------------
                      00078 ;--------------------------------------------------------
                      00079 ; initialized absolute data
                      00080 ;--------------------------------------------------------
                      00081 ;--------------------------------------------------------
                      00082 ; overlayable items in internal ram 
                      00083 ;--------------------------------------------------------
                      00084 ;       udata_ovr
                      00085 ;--------------------------------------------------------
                      00086 ; code
                      00087 ;--------------------------------------------------------
                      00088 code_PB_driver  code
                      00089 ;***
                      00090 ;  pBlock Stats: dbName = C
                      00091 ;***
                      00092 ;has an exit
                      00093 ;functions called:
                      00094 ;   __muluchar
                      00095 ;   __muluchar
                      00096 ;4 compiler assigned registers:
gpasm-1.5.0 #1285 (Sep 12 2016) obj\Debug\PB_   8-4-2020  19:47:27          PAGE  3


LOC    OBJECT CODE    LINE  SOURCE TEXT
  VALUE

                      00097 ;   r0x100C
                      00098 ;   STK00
                      00099 ;   r0x100D
                      00100 ;   r0x100E
                      00101 ;; Starting pCode block
                      00102 ;;; /home/sdcc-builder/build/sdcc-build/orig/sdcc/src/pic14/gen.c:2358:resultRemat *{*
                      00103 ;;; /home/sdcc-builder/build/sdcc-build/orig/sdcc/src/pic14/gen.c:2802:genLabel *{*
                      00104 ;; ***  genLabel  2805
                      00105 ;;; /home/sdcc-builder/build/sdcc-build/orig/sdcc/src/pic14/gen.c:2358:resultRemat *{*
                      00106 ;;; /home/sdcc-builder/build/sdcc-build/orig/sdcc/src/pic14/gen.c:2382:genFunction *{*
                      00107 ;; ***  genFunction  2384 curr label offset=34previous max_key=68 
                      00108 S_PB_driver__PB_DRIVER_GET_STATE        code
0000                  00109 _PB_DRIVER_GET_STATE:
                      00110 ; 2 exit points
                      00111 ;;; /home/sdcc-builder/build/sdcc-build/orig/sdcc/src/pic14/gen.c:2358:resultRemat *{*
                      00112 ;;; /home/sdcc-builder/build/sdcc-build/orig/sdcc/src/pic14/gen.c:7642:genReceive *{*
                      00113 ;; ***  genReceive  7643
                      00114 ;;      708 register type nRegs=1
                      00115 ;;; /home/sdcc-builder/build/sdcc-build/orig/sdcc/src/pic14/gen.c:1929:assignResultValue *{*
                      00116 ;; ***  assignResultValue  1931
                      00117 ;;      line = 1933 result -=-, size=0, left AOP_REG=r0x1058, size=1, right -=-, size=0
                      00118 ;; >>> /home/sdcc-builder/build/sdcc-build/orig/sdcc/src/pic14/gen.c:1407:movwf
                      00119 ;;      1126 rIdx = r0x1058 
                      00120         .line   104; "PB_driver.c"      button_state PB_DRIVER_GET_STATE(button_name button){
0000   0??? 0???      00121         BANKSEL r0x100C
0002   00??           00122         MOVWF   r0x100C
                      00123 ;;; /home/sdcc-builder/build/sdcc-build/orig/sdcc/src/pic14/gen.c:2358:resultRemat *{*
                      00124 ;;; /home/sdcc-builder/build/sdcc-build/orig/sdcc/src/pic14/gen.c:2358:resultRemat *{*
                      00125 ;;; /home/sdcc-builder/build/sdcc-build/orig/sdcc/src/pic14/gen.c:2358:resultRemat *{*
                      00126 ;;; /home/sdcc-builder/build/sdcc-build/orig/sdcc/src/pic14/gen.c:2358:resultRemat *{*
                      00127 ;;; /home/sdcc-builder/build/sdcc-build/orig/sdcc/src/pic14/gen.c:2108:genCall *{*
                      00128 ;; ***  genCall  2110
                      00129 ;;      708 register type nRegs=1
                      00130 ;;      2158 left AOP_LIT
                      00131 ;;; /home/sdcc-builder/build/sdcc-build/orig/sdcc/src/pic14/gen.c:1357:mov2w_op *{*
                      00132 ;; >>> /home/sdcc-builder/build/sdcc-build/orig/sdcc/src/pic14/gen.c:1375:mov2w_op
                      00133         .line   105; "PB_driver.c"      button_state state = arr[button].state;
0003   3003           00134         MOVLW   0x03
                      00135 ;;      708 register type nRegs=1
                      00136 ;;      2158 left AOP_REG
                      00137 ;; >>> /home/sdcc-builder/build/sdcc-build/orig/sdcc/src/pic14/gen.c:2166:genCall
                      00138 ;; ***  popRegFromIdx,1059  , rIdx=0x7f
0004   00??           00139         MOVWF   STK00
                      00140 ;;; /home/sdcc-builder/build/sdcc-build/orig/sdcc/src/pic14/gen.c:1357:mov2w_op *{*
                      00141 ;; ***  mov2w  1395  offset=0
                      00142 ;; >>> /home/sdcc-builder/build/sdcc-build/orig/sdcc/src/pic14/gen.c:1400:mov2w
                      00143 ;;      1126 rIdx = r0x1058 
0005   08??           00144         MOVF    r0x100C,W
                      00145 ;; >>> /home/sdcc-builder/build/sdcc-build/orig/sdcc/src/pic14/gen.c:2207:genCall
0006   0??? 0???      00146         PAGESEL __muluchar
                      00147 ;; >>> /home/sdcc-builder/build/sdcc-build/orig/sdcc/src/pic14/gen.c:2215:genCall
0008   2???           00148         CALL    __muluchar
                      00149 ;; >>> /home/sdcc-builder/build/sdcc-build/orig/sdcc/src/pic14/gen.c:2223:genCall
gpasm-1.5.0 #1285 (Sep 12 2016) obj\Debug\PB_   8-4-2020  19:47:27          PAGE  4


LOC    OBJECT CODE    LINE  SOURCE TEXT
  VALUE

0009   0??? 0???      00150         PAGESEL $
                      00151 ;;      708 register type nRegs=2
                      00152 ;;; /home/sdcc-builder/build/sdcc-build/orig/sdcc/src/pic14/gen.c:1929:assignResultValue *{*
                      00153 ;; ***  assignResultValue  1931
                      00154 ;;      line = 1933 result -=-, size=0, left AOP_REG=r0x1058, size=2, right -=-, size=0
                      00155 ;; >>> /home/sdcc-builder/build/sdcc-build/orig/sdcc/src/pic14/gen.c:1407:movwf
                      00156 ;;      1126 rIdx = r0x1059 
000B   0??? 0???      00157         BANKSEL r0x100D
000D   00??           00158         MOVWF   r0x100D
                      00159 ;; >>> /home/sdcc-builder/build/sdcc-build/orig/sdcc/src/pic14/gen.c:1437:get_returnvalue
                      00160 ;; ***  popRegFromIdx,1059  , rIdx=0x7f
000E   08??           00161         MOVF    STK00,W
                      00162 ;; >>> /home/sdcc-builder/build/sdcc-build/orig/sdcc/src/pic14/gen.c:1407:movwf
                      00163 ;;      1126 rIdx = r0x1058 
000F   00??           00164         MOVWF   r0x100C
0010   3E??           00165         ADDLW   (_arr + 0)
                      00166 ;; >>> /home/sdcc-builder/build/sdcc-build/orig/sdcc/src/pic14/genarith.c:833:genPlus
                      00167 ;;      1126 rIdx = r0x1058 
0011   00??           00168         MOVWF   r0x100C
                      00169 ;; >>> /home/sdcc-builder/build/sdcc-build/orig/sdcc/src/pic14/genarith.c:849:genPlus
                      00170 ;;      1126 rIdx = r0x1059 
0012   08??           00171         MOVF    r0x100D,W
                      00172 ;; >>> /home/sdcc-builder/build/sdcc-build/orig/sdcc/src/pic14/genarith.c:850:genPlus
0013   1803           00173         BTFSC   STATUS,0
                      00174 ;; >>> /home/sdcc-builder/build/sdcc-build/orig/sdcc/src/pic14/genarith.c:851:genPlus
                      00175 ;;      1126 rIdx = r0x1059 
0014   0F??           00176         INCFSZ  r0x100D,W
                      00177 ;; >>> /home/sdcc-builder/build/sdcc-build/orig/sdcc/src/pic14/genarith.c:852:genPlus
0015   3E??           00178         ADDLW   high (_arr + 0)
                      00179 ;; >>> /home/sdcc-builder/build/sdcc-build/orig/sdcc/src/pic14/genarith.c:853:genPlus
                      00180 ;;      1126 rIdx = r0x1059 
0016   00??           00181         MOVWF   r0x100D
                      00182 ;;; /home/sdcc-builder/build/sdcc-build/orig/sdcc/src/pic14/gen.c:2358:resultRemat *{*
                      00183 ;;; /home/sdcc-builder/build/sdcc-build/orig/sdcc/src/pic14/gen.c:6399:genPointerGet *{*
                      00184 ;; ***  genPointerGet  6400
                      00185 ;;; /home/sdcc-builder/build/sdcc-build/orig/sdcc/src/pic14/gen.c:6285:genNearPointerGet *{*
                      00186 ;; ***  genNearPointerGet  6286
                      00187 ;;      708 register type nRegs=2
                      00188 ;; ***  genNearPointerGet  6302
                      00189 ;;      708 register type nRegs=1
                      00190 ;;; /home/sdcc-builder/build/sdcc-build/orig/sdcc/src/pic14/gen.c:1357:mov2w_op *{*
                      00191 ;; ***  mov2w  1395  offset=0
                      00192 ;; >>> /home/sdcc-builder/build/sdcc-build/orig/sdcc/src/pic14/gen.c:1400:mov2w
                      00193 ;;      1126 rIdx = r0x1058 
0017   08??           00194         MOVF    r0x100C,W
                      00195 ;; >>> /home/sdcc-builder/build/sdcc-build/orig/sdcc/src/pic14/gen.c:5851:setup_fsr
0018   1283 1303      00196         BANKSEL FSR
001A   0084           00197         MOVWF   FSR
                      00198 ;;; /home/sdcc-builder/build/sdcc-build/orig/sdcc/src/pic14/gen.c:5802:SetIrp *{*
                      00199 ;; >>> /home/sdcc-builder/build/sdcc-build/orig/sdcc/src/pic14/gen.c:5829:SetIrp
001B   1383           00200         BCF     STATUS,7
                      00201 ;; >>> /home/sdcc-builder/build/sdcc-build/orig/sdcc/src/pic14/gen.c:5832:SetIrp
001C   0??? 0???      00202         BANKSEL r0x100D
gpasm-1.5.0 #1285 (Sep 12 2016) obj\Debug\PB_   8-4-2020  19:47:27          PAGE  5


LOC    OBJECT CODE    LINE  SOURCE TEXT
  VALUE

001E   18??           00203         BTFSC   r0x100D,0
                      00204 ;; >>> /home/sdcc-builder/build/sdcc-build/orig/sdcc/src/pic14/gen.c:5833:SetIrp
001F   1783           00205         BSF     STATUS,7
                      00206 ;; >>> /home/sdcc-builder/build/sdcc-build/orig/sdcc/src/pic14/gen.c:6060:emitPtrGet
0020   1283 1303      00207         BANKSEL INDF
0022   0800           00208         MOVF    INDF,W
                      00209 ;; >>> /home/sdcc-builder/build/sdcc-build/orig/sdcc/src/pic14/gen.c:1407:movwf
                      00210 ;;      1126 rIdx = r0x105A 
                      00211 ;;1     MOVWF   r0x100E
                      00212         .line   107; "PB_driver.c"      }
0023   0008           00213         RETURN  
                      00214 ; exit point of _PB_DRIVER_GET_STATE
                      00215 
                      00216 ;***
                      00217 ;  pBlock Stats: dbName = C
                      00218 ;***
                      00219 ;has an exit
                      00220 ;functions called:
                      00221 ;   _GPIO_GET_PORT_STATE
                      00222 ;   _GPIO_GET_PORT_STATE
                      00223 ;   _GPIO_GET_PORT_STATE
                      00224 ;   _GPIO_GET_PORT_STATE
                      00225 ;   _GPIO_GET_PORT_STATE
                      00226 ;   _GPIO_GET_PORT_STATE
                      00227 ;   _GPIO_GET_PORT_STATE
                      00228 ;   _GPIO_GET_PORT_STATE
                      00229 ;13 compiler assigned registers:
                      00230 ;   r0x100F
                      00231 ;   r0x1010
                      00232 ;   r0x1011
                      00233 ;   r0x1012
                      00234 ;   r0x1013
                      00235 ;   r0x1014
                      00236 ;   r0x1015
                      00237 ;   r0x1016
                      00238 ;   r0x1017
                      00239 ;   r0x1018
                      00240 ;   STK00
                      00241 ;   r0x1019
                      00242 ;   r0x101A
                      00243 ;; Starting pCode block
                      00244 ;;; /home/sdcc-builder/build/sdcc-build/orig/sdcc/src/pic14/gen.c:2358:resultRemat *{*
                      00245 ;;; /home/sdcc-builder/build/sdcc-build/orig/sdcc/src/pic14/gen.c:2802:genLabel *{*
                      00246 ;; ***  genLabel  2805
                      00247 ;;; /home/sdcc-builder/build/sdcc-build/orig/sdcc/src/pic14/gen.c:2358:resultRemat *{*
                      00248 ;;; /home/sdcc-builder/build/sdcc-build/orig/sdcc/src/pic14/gen.c:2382:genFunction *{*
                      00249 ;; ***  genFunction  2384 curr label offset=4previous max_key=26 
                      00250 S_PB_driver__PB_DRIVER_UPDATE   code
0000                  00251 _PB_DRIVER_UPDATE:
                      00252 ; 2 exit points
                      00253 ;;; /home/sdcc-builder/build/sdcc-build/orig/sdcc/src/pic14/gen.c:2358:resultRemat *{*
                      00254 ;;; /home/sdcc-builder/build/sdcc-build/orig/sdcc/src/pic14/gen.c:2358:resultRemat *{*
                      00255 ;;; /home/sdcc-builder/build/sdcc-build/orig/sdcc/src/pic14/gen.c:7192:genAssign *{*
gpasm-1.5.0 #1285 (Sep 12 2016) obj\Debug\PB_   8-4-2020  19:47:27          PAGE  6


LOC    OBJECT CODE    LINE  SOURCE TEXT
  VALUE

                      00256 ;; ***  genAssign  7193
                      00257 ;;      708 register type nRegs=1
                      00258 ;;      line = 7202 result AOP_REG=r0x104C, size=1, left -=-, size=0, right AOP_LIT=0x00, size=1
                      00259 ;; ***  genAssign  7286
                      00260 ;; >>> /home/sdcc-builder/build/sdcc-build/orig/sdcc/src/pic14/gen.c:7298:genAssign
                      00261 ;;      1126 rIdx = r0x104C 
                      00262         .line   54; "PB_driver.c"       for(button=increment_button;button<=unused_button;button++){
0000   0??? 0???      00263         BANKSEL r0x100F
0002   01??           00264         CLRF    r0x100F
                      00265 ;;; /home/sdcc-builder/build/sdcc-build/orig/sdcc/src/pic14/gen.c:2358:resultRemat *{*
                      00266 ;;; /home/sdcc-builder/build/sdcc-build/orig/sdcc/src/pic14/gen.c:7192:genAssign *{*
                      00267 ;; ***  genAssign  7193
                      00268 ;;      708 register type nRegs=2
                      00269 ;;      line = 7202 result AOP_REG=r0x104D, size=2, left -=-, size=0, right AOP_LIT=0x00, size=2
                      00270 ;; ***  genAssign  7286
                      00271 ;; >>> /home/sdcc-builder/build/sdcc-build/orig/sdcc/src/pic14/gen.c:7298:genAssign
                      00272 ;;      1126 rIdx = r0x104D 
0003   01??           00273         CLRF    r0x1010
                      00274 ;; ***  genAssign  7286
                      00275 ;; >>> /home/sdcc-builder/build/sdcc-build/orig/sdcc/src/pic14/gen.c:7298:genAssign
                      00276 ;;      1126 rIdx = r0x104E 
0004   01??           00277         CLRF    r0x1011
                      00278 ;;; /home/sdcc-builder/build/sdcc-build/orig/sdcc/src/pic14/gen.c:2358:resultRemat *{*
                      00279 ;;; /home/sdcc-builder/build/sdcc-build/orig/sdcc/src/pic14/gen.c:7192:genAssign *{*
                      00280 ;; ***  genAssign  7193
                      00281 ;;      708 register type nRegs=2
                      00282 ;;      line = 7202 result AOP_REG=r0x104F, size=2, left -=-, size=0, right AOP_LIT=0x00, size=2
                      00283 ;; ***  genAssign  7286
                      00284 ;; >>> /home/sdcc-builder/build/sdcc-build/orig/sdcc/src/pic14/gen.c:7298:genAssign
                      00285 ;;      1126 rIdx = r0x104F 
0005   01??           00286         CLRF    r0x1012
                      00287 ;; ***  genAssign  7286
                      00288 ;; >>> /home/sdcc-builder/build/sdcc-build/orig/sdcc/src/pic14/gen.c:7298:genAssign
                      00289 ;;      1126 rIdx = r0x1050 
0006   01??           00290         CLRF    r0x1013
                      00291 ;;; /home/sdcc-builder/build/sdcc-build/orig/sdcc/src/pic14/gen.c:2358:resultRemat *{*
                      00292 ;;; /home/sdcc-builder/build/sdcc-build/orig/sdcc/src/pic14/gen.c:2802:genLabel *{*
                      00293 ;; ***  genLabel  2805
                      00294 ;;; /home/sdcc-builder/build/sdcc-build/orig/sdcc/src/pic14/gen.c:2358:resultRemat *{*
                      00295 ;; ***  genPlus  707
                      00296 ;;; /home/sdcc-builder/build/sdcc-build/orig/sdcc/src/pic14/genarith.c:708:genPlus *{*
                      00297 ;;      627
                      00298 ;;      aopForRemat 406
                      00299 ;;      432: rname _arr, val 0, const = 0
                      00300 ;;      708 register type nRegs=2
                      00301 ;;      708 register type nRegs=2
                      00302 ;;      837: aopGet AOP_PCODE type PO_IMMEDIATE
                      00303 ;;      _arr
                      00304 ;;      line = 714 result AOP_REG=r0x1051, size=2, left AOP_PCODE=_arr, size=2, right AOP_REG=r0x104F, s
                            ize=2
                      00305 ;;; /home/sdcc-builder/build/sdcc-build/orig/sdcc/src/pic14/genarith.c:159:genPlusIncr *{*
                      00306 ;; ***  genPlusIncr  161
                      00307 ;;      result AOP_REG, left AOP_PCODE, right AOP_REG
gpasm-1.5.0 #1285 (Sep 12 2016) obj\Debug\PB_   8-4-2020  19:47:27          PAGE  7


LOC    OBJECT CODE    LINE  SOURCE TEXT
  VALUE

                      00308 ;; ***  genPlus  814
                      00309 ;;      837: aopGet AOP_PCODE type PO_IMMEDIATE
                      00310 ;;      _arr
                      00311 ;; >>> /home/sdcc-builder/build/sdcc-build/orig/sdcc/src/pic14/genarith.c:823:genPlus
                      00312 ;;      1126 rIdx = r0x104F 
0007                  00313 _00158_DS_:
                      00314         .line   55; "PB_driver.c"       arr[button].samples[0] = arr[button].samples[1];
0007   0??? 0???      00315         BANKSEL r0x1012
0009   08??           00316         MOVF    r0x1012,W
                      00317 ;; >>> /home/sdcc-builder/build/sdcc-build/orig/sdcc/src/pic14/genarith.c:832:genPlus
000A   3E??           00318         ADDLW   (_arr + 0)
                      00319 ;; >>> /home/sdcc-builder/build/sdcc-build/orig/sdcc/src/pic14/genarith.c:833:genPlus
                      00320 ;;      1126 rIdx = r0x1051 
000B   00??           00321         MOVWF   r0x1014
                      00322 ;; >>> /home/sdcc-builder/build/sdcc-build/orig/sdcc/src/pic14/genarith.c:880:genPlus
000C   30??           00323         MOVLW   high (_arr + 0)
                      00324 ;; >>> /home/sdcc-builder/build/sdcc-build/orig/sdcc/src/pic14/genarith.c:881:genPlus
                      00325 ;;      1126 rIdx = r0x1052 
000D   00??           00326         MOVWF   r0x1015
                      00327 ;; >>> /home/sdcc-builder/build/sdcc-build/orig/sdcc/src/pic14/genarith.c:883:genPlus
                      00328 ;;      1126 rIdx = r0x1050 
000E   08??           00329         MOVF    r0x1013,W
                      00330 ;; >>> /home/sdcc-builder/build/sdcc-build/orig/sdcc/src/pic14/genarith.c:884:genPlus
000F   1803           00331         BTFSC   STATUS,0
                      00332 ;; >>> /home/sdcc-builder/build/sdcc-build/orig/sdcc/src/pic14/genarith.c:885:genPlus
                      00333 ;;      1126 rIdx = r0x1050 
0010   0F??           00334         INCFSZ  r0x1013,W
                      00335 ;; >>> /home/sdcc-builder/build/sdcc-build/orig/sdcc/src/pic14/genarith.c:886:genPlus
                      00336 ;;      1126 rIdx = r0x1052 
0011   07??           00337         ADDWF   r0x1015,F
                      00338 ;;; /home/sdcc-builder/build/sdcc-build/orig/sdcc/src/pic14/gen.c:2358:resultRemat *{*
                      00339 ;; ***  genPlus  707
                      00340 ;;; /home/sdcc-builder/build/sdcc-build/orig/sdcc/src/pic14/genarith.c:708:genPlus *{*
                      00341 ;;      708 register type nRegs=2
                      00342 ;;      708 register type nRegs=2
                      00343 ;;      line = 714 result AOP_REG=r0x1053, size=2, left AOP_REG=r0x1051, size=2, right AOP_LIT=0x01, siz
                            e=1
                      00344 ;;; /home/sdcc-builder/build/sdcc-build/orig/sdcc/src/pic14/genarith.c:159:genPlusIncr *{*
                      00345 ;; ***  genPlusIncr  161
                      00346 ;;      result AOP_REG, left AOP_REG, right AOP_LIT
                      00347 ;;      genPlusIncr  173
                      00348 ;;      genPlusIncr  197
                      00349 ;;      adding lit to something. size 2
                      00350 ;;; /home/sdcc-builder/build/sdcc-build/orig/sdcc/src/pic14/genarith.c:286:genAddLit *{*
                      00351 ;; ***  genAddLit  287
                      00352 ;;  left and result aren't same genAddLit  537
                      00353 ;; >>> /home/sdcc-builder/build/sdcc-build/orig/sdcc/src/pic14/genarith.c:601:genAddLit
0012   3001           00354         MOVLW   0x01
                      00355 ;; >>> /home/sdcc-builder/build/sdcc-build/orig/sdcc/src/pic14/genarith.c:602:genAddLit
                      00356 ;;      1126 rIdx = r0x1051 
0013   07??           00357         ADDWF   r0x1014,W
                      00358 ;;; /home/sdcc-builder/build/sdcc-build/orig/sdcc/src/pic14/genarith.c:270:emitMOVWF *{*
                      00359 ;; >>> /home/sdcc-builder/build/sdcc-build/orig/sdcc/src/pic14/genarith.c:274:emitMOVWF
gpasm-1.5.0 #1285 (Sep 12 2016) obj\Debug\PB_   8-4-2020  19:47:27          PAGE  8


LOC    OBJECT CODE    LINE  SOURCE TEXT
  VALUE

                      00360 ;;      1126 rIdx = r0x1053 
0014   00??           00361         MOVWF   r0x1016
                      00362 ;; >>> /home/sdcc-builder/build/sdcc-build/orig/sdcc/src/pic14/genarith.c:677:genAddLit
                      00363 ;;      1126 rIdx = r0x1054 
0015   01??           00364         CLRF    r0x1017
                      00365 ;; >>> /home/sdcc-builder/build/sdcc-build/orig/sdcc/src/pic14/genarith.c:678:genAddLit
                      00366 ;;      1126 rIdx = r0x1054 
0016   0D??           00367         RLF     r0x1017,F
                      00368 ;; >>> /home/sdcc-builder/build/sdcc-build/orig/sdcc/src/pic14/genarith.c:679:genAddLit
                      00369 ;;      1126 rIdx = r0x1052 
0017   08??           00370         MOVF    r0x1015,W
                      00371 ;; >>> /home/sdcc-builder/build/sdcc-build/orig/sdcc/src/pic14/genarith.c:680:genAddLit
                      00372 ;;      1126 rIdx = r0x1054 
0018   07??           00373         ADDWF   r0x1017,F
                      00374 ;; ***  addSign  1087
                      00375 ;;; /home/sdcc-builder/build/sdcc-build/orig/sdcc/src/pic14/genarith.c:1088:addSign *{*
                      00376 ;;; /home/sdcc-builder/build/sdcc-build/orig/sdcc/src/pic14/gen.c:2358:resultRemat *{*
                      00377 ;; ***  genPlus  707
                      00378 ;;; /home/sdcc-builder/build/sdcc-build/orig/sdcc/src/pic14/genarith.c:708:genPlus *{*
                      00379 ;;      708 register type nRegs=2
                      00380 ;;      708 register type nRegs=2
                      00381 ;;      line = 714 result AOP_REG=r0x1051, size=2, left AOP_REG=r0x1051, size=2, right AOP_LIT=0x02, siz
                            e=1
                      00382 ;;; /home/sdcc-builder/build/sdcc-build/orig/sdcc/src/pic14/genarith.c:159:genPlusIncr *{*
                      00383 ;; ***  genPlusIncr  161
                      00384 ;;      result AOP_REG, left AOP_REG, right AOP_LIT
                      00385 ;;      genPlusIncr  173
                      00386 ;;      genPlusIncr  197
                      00387 ;;      adding lit to something. size 2
                      00388 ;;; /home/sdcc-builder/build/sdcc-build/orig/sdcc/src/pic14/genarith.c:286:genAddLit *{*
                      00389 ;; ***  genAddLit  287
                      00390 ;; hi = 0       genAddLit  351
                      00391 ;; >>> /home/sdcc-builder/build/sdcc-build/orig/sdcc/src/pic14/genarith.c:367:genAddLit
0019   3002           00392         MOVLW   0x02
                      00393 ;; >>> /home/sdcc-builder/build/sdcc-build/orig/sdcc/src/pic14/genarith.c:368:genAddLit
                      00394 ;;      1126 rIdx = r0x1051 
001A   07??           00395         ADDWF   r0x1014,F
                      00396 ;; >>> /home/sdcc-builder/build/sdcc-build/orig/sdcc/src/pic14/genarith.c:369:genAddLit
001B   1803           00397         BTFSC   STATUS,0
                      00398 ;; >>> /home/sdcc-builder/build/sdcc-build/orig/sdcc/src/pic14/genarith.c:370:genAddLit
                      00399 ;;      1126 rIdx = r0x1052 
001C   0A??           00400         INCF    r0x1015,F
                      00401 ;; ***  addSign  1087
                      00402 ;;; /home/sdcc-builder/build/sdcc-build/orig/sdcc/src/pic14/genarith.c:1088:addSign *{*
                      00403 ;;; /home/sdcc-builder/build/sdcc-build/orig/sdcc/src/pic14/gen.c:2358:resultRemat *{*
                      00404 ;;; /home/sdcc-builder/build/sdcc-build/orig/sdcc/src/pic14/gen.c:6399:genPointerGet *{*
                      00405 ;; ***  genPointerGet  6400
                      00406 ;;; /home/sdcc-builder/build/sdcc-build/orig/sdcc/src/pic14/gen.c:6285:genNearPointerGet *{*
                      00407 ;; ***  genNearPointerGet  6286
                      00408 ;;      708 register type nRegs=2
                      00409 ;; ***  genNearPointerGet  6302
                      00410 ;;      708 register type nRegs=1
                      00411 ;;; /home/sdcc-builder/build/sdcc-build/orig/sdcc/src/pic14/gen.c:1357:mov2w_op *{*
gpasm-1.5.0 #1285 (Sep 12 2016) obj\Debug\PB_   8-4-2020  19:47:27          PAGE  9


LOC    OBJECT CODE    LINE  SOURCE TEXT
  VALUE

                      00412 ;; ***  mov2w  1395  offset=0
                      00413 ;; >>> /home/sdcc-builder/build/sdcc-build/orig/sdcc/src/pic14/gen.c:1400:mov2w
                      00414 ;;      1126 rIdx = r0x1051 
001D   08??           00415         MOVF    r0x1014,W
                      00416 ;; >>> /home/sdcc-builder/build/sdcc-build/orig/sdcc/src/pic14/gen.c:5851:setup_fsr
001E   1283 1303      00417         BANKSEL FSR
0020   0084           00418         MOVWF   FSR
                      00419 ;;; /home/sdcc-builder/build/sdcc-build/orig/sdcc/src/pic14/gen.c:5802:SetIrp *{*
                      00420 ;; >>> /home/sdcc-builder/build/sdcc-build/orig/sdcc/src/pic14/gen.c:5829:SetIrp
0021   1383           00421         BCF     STATUS,7
                      00422 ;; >>> /home/sdcc-builder/build/sdcc-build/orig/sdcc/src/pic14/gen.c:5832:SetIrp
0022   0??? 0???      00423         BANKSEL r0x1015
0024   18??           00424         BTFSC   r0x1015,0
                      00425 ;; >>> /home/sdcc-builder/build/sdcc-build/orig/sdcc/src/pic14/gen.c:5833:SetIrp
0025   1783           00426         BSF     STATUS,7
                      00427 ;; >>> /home/sdcc-builder/build/sdcc-build/orig/sdcc/src/pic14/gen.c:6060:emitPtrGet
0026   1283 1303      00428         BANKSEL INDF
0028   0800           00429         MOVF    INDF,W
                      00430 ;; >>> /home/sdcc-builder/build/sdcc-build/orig/sdcc/src/pic14/gen.c:1407:movwf
                      00431 ;;      1126 rIdx = r0x1055 
0029   0??? 0???      00432         BANKSEL r0x1018
002B   00??           00433         MOVWF   r0x1018
                      00434 ;;; /home/sdcc-builder/build/sdcc-build/orig/sdcc/src/pic14/gen.c:2358:resultRemat *{*
                      00435 ;;; /home/sdcc-builder/build/sdcc-build/orig/sdcc/src/pic14/gen.c:6951:genPointerSet *{*
                      00436 ;; ***  genPointerSet  6952
                      00437 ;;; /home/sdcc-builder/build/sdcc-build/orig/sdcc/src/pic14/gen.c:6871:genNearPointerSet *{*
                      00438 ;; ***  genNearPointerSet  6872
                      00439 ;;      708 register type nRegs=2
                      00440 ;; ***  genNearPointerSet  6886
                      00441 ;;      708 register type nRegs=1
                      00442 ;;      line = 6888 result AOP_REG=r0x1053, size=2, left -=-, size=0, right AOP_REG=r0x1055, size=1
                      00443 ;;; /home/sdcc-builder/build/sdcc-build/orig/sdcc/src/pic14/gen.c:1357:mov2w_op *{*
                      00444 ;; ***  mov2w  1395  offset=0
                      00445 ;; >>> /home/sdcc-builder/build/sdcc-build/orig/sdcc/src/pic14/gen.c:1400:mov2w
                      00446 ;;      1126 rIdx = r0x1053 
002C   08??           00447         MOVF    r0x1016,W
                      00448 ;; >>> /home/sdcc-builder/build/sdcc-build/orig/sdcc/src/pic14/gen.c:5851:setup_fsr
002D   1283 1303      00449         BANKSEL FSR
002F   0084           00450         MOVWF   FSR
                      00451 ;;; /home/sdcc-builder/build/sdcc-build/orig/sdcc/src/pic14/gen.c:5802:SetIrp *{*
                      00452 ;; >>> /home/sdcc-builder/build/sdcc-build/orig/sdcc/src/pic14/gen.c:5829:SetIrp
0030   1383           00453         BCF     STATUS,7
                      00454 ;; >>> /home/sdcc-builder/build/sdcc-build/orig/sdcc/src/pic14/gen.c:5832:SetIrp
0031   0??? 0???      00455         BANKSEL r0x1017
0033   18??           00456         BTFSC   r0x1017,0
                      00457 ;; >>> /home/sdcc-builder/build/sdcc-build/orig/sdcc/src/pic14/gen.c:5833:SetIrp
0034   1783           00458         BSF     STATUS,7
                      00459 ;; >>> /home/sdcc-builder/build/sdcc-build/orig/sdcc/src/pic14/gen.c:6638:emitPtrPut
                      00460 ;;      1126 rIdx = r0x1055 
0035   08??           00461         MOVF    r0x1018,W
                      00462 ;; >>> /home/sdcc-builder/build/sdcc-build/orig/sdcc/src/pic14/gen.c:6639:emitPtrPut
0036   1283 1303      00463         BANKSEL INDF
0038   0080           00464         MOVWF   INDF
gpasm-1.5.0 #1285 (Sep 12 2016) obj\Debug\PB_   8-4-2020  19:47:27          PAGE 10


LOC    OBJECT CODE    LINE  SOURCE TEXT
  VALUE

                      00465 ;; ***  genNearPointerSet  6905
                      00466 ;;; /home/sdcc-builder/build/sdcc-build/orig/sdcc/src/pic14/gen.c:2358:resultRemat *{*
                      00467 ;;; /home/sdcc-builder/build/sdcc-build/orig/sdcc/src/pic14/gen.c:3616:genCmpGt *{*
                      00468 ;; ***  genCmpGt  3617
                      00469 ;;      708 register type nRegs=1
                      00470 ;;; /home/sdcc-builder/build/sdcc-build/orig/sdcc/src/pic14/gen.c:3354:genCmp *{*
                      00471 ;;swapping arguments (AOP_TYPEs 1/2)
                      00472 ;;unsigned compare: left >= lit(0x4=4), size=1
                      00473 ;; >>> /home/sdcc-builder/build/sdcc-build/orig/sdcc/src/pic14/gen.c:3325:pic14_mov2w_regOrLit
                      00474         .line   56; "PB_driver.c"       switch(button){
0039   3004           00475         MOVLW   0x04
                      00476 ;; >>> /home/sdcc-builder/build/sdcc-build/orig/sdcc/src/pic14/gen.c:3492:genCmp
                      00477 ;;      1126 rIdx = r0x104C 
003A   0??? 0???      00478         BANKSEL r0x100F
003C   02??           00479         SUBWF   r0x100F,W
                      00480 ;;; /home/sdcc-builder/build/sdcc-build/orig/sdcc/src/pic14/gen.c:3297:genSkipc *{*
                      00481 ;; >>> /home/sdcc-builder/build/sdcc-build/orig/sdcc/src/pic14/gen.c:3302:genSkipc
003D   1803           00482         BTFSC   STATUS,0
                      00483 ;; >>> /home/sdcc-builder/build/sdcc-build/orig/sdcc/src/pic14/gen.c:3306:genSkipc
                      00484 ;; ***  popGetLabel  key=6, label offset 34
003E   2???           00485         GOTO    _00140_DS_
                      00486 ;;genSkipc:3307: created from rifx:00000000047A5780
                      00487 ;;; /home/sdcc-builder/build/sdcc-build/orig/sdcc/src/pic14/gen.c:2358:resultRemat *{*
                      00488 ;;; /home/sdcc-builder/build/sdcc-build/orig/sdcc/src/pic14/gen.c:2358:resultRemat *{*
                      00489 ;;; /home/sdcc-builder/build/sdcc-build/orig/sdcc/src/pic14/gen.c:7337:genJumpTab *{*
                      00490 ;; ***  genJumpTab  7338
                      00491 ;;      708 register type nRegs=1
                      00492 ;; >>> /home/sdcc-builder/build/sdcc-build/orig/sdcc/src/pic14/gen.c:7353:genJumpTab
                      00493 ;; ***  popGetLabel  key=66, label offset 34
003F   30??           00494         MOVLW   HIGH(_00200_DS_)
                      00495 ;; >>> /home/sdcc-builder/build/sdcc-build/orig/sdcc/src/pic14/gen.c:7354:genJumpTab
0040   1283 1303      00496         BANKSEL PCLATH
0042   008A           00497         MOVWF   PCLATH
                      00498 ;; >>> /home/sdcc-builder/build/sdcc-build/orig/sdcc/src/pic14/gen.c:7355:genJumpTab
                      00499 ;; ***  popGetLabel  key=66, label offset 34
0043   30??           00500         MOVLW   _00200_DS_
                      00501 ;; >>> /home/sdcc-builder/build/sdcc-build/orig/sdcc/src/pic14/gen.c:7356:genJumpTab
                      00502 ;;      1126 rIdx = r0x104C 
0044   0??? 0???      00503         BANKSEL r0x100F
0046   07??           00504         ADDWF   r0x100F,W
                      00505 ;; >>> /home/sdcc-builder/build/sdcc-build/orig/sdcc/src/pic14/gen.c:7357:genJumpTab
0047   1C03           00506         BTFSS   STATUS,0
0048   2???           00507         GOTO    _00001_DS_
                      00508 ;; >>> /home/sdcc-builder/build/sdcc-build/orig/sdcc/src/pic14/gen.c:7358:genJumpTab
0049   1283 1303      00509         BANKSEL PCLATH
004B   0A8A           00510         INCF    PCLATH,F
                      00511 ;; >>> /home/sdcc-builder/build/sdcc-build/orig/sdcc/src/pic14/gen.c:7359:genJumpTab
004C                  00512 _00001_DS_:
004C   0082           00513         MOVWF   PCL
                      00514 ;; >>> /home/sdcc-builder/build/sdcc-build/orig/sdcc/src/pic14/gen.c:7368:genJumpTab
                      00515 ;; ***  popGetLabel  key=1, label offset 34
004D                  00516 _00200_DS_:
004D   2???           00517         GOTO    _00135_DS_
gpasm-1.5.0 #1285 (Sep 12 2016) obj\Debug\PB_   8-4-2020  19:47:27          PAGE 11


LOC    OBJECT CODE    LINE  SOURCE TEXT
  VALUE

                      00518 ;; >>> /home/sdcc-builder/build/sdcc-build/orig/sdcc/src/pic14/gen.c:7368:genJumpTab
                      00519 ;; ***  popGetLabel  key=2, label offset 34
004E   2???           00520         GOTO    _00136_DS_
                      00521 ;; >>> /home/sdcc-builder/build/sdcc-build/orig/sdcc/src/pic14/gen.c:7368:genJumpTab
                      00522 ;; ***  popGetLabel  key=3, label offset 34
004F   2???           00523         GOTO    _00137_DS_
                      00524 ;; >>> /home/sdcc-builder/build/sdcc-build/orig/sdcc/src/pic14/gen.c:7368:genJumpTab
                      00525 ;; ***  popGetLabel  key=4, label offset 34
0050   2???           00526         GOTO    _00138_DS_
                      00527 ;;; /home/sdcc-builder/build/sdcc-build/orig/sdcc/src/pic14/gen.c:2358:resultRemat *{*
                      00528 ;;; /home/sdcc-builder/build/sdcc-build/orig/sdcc/src/pic14/gen.c:2802:genLabel *{*
                      00529 ;; ***  genLabel  2805
                      00530 ;;; /home/sdcc-builder/build/sdcc-build/orig/sdcc/src/pic14/gen.c:2358:resultRemat *{*
                      00531 ;;; /home/sdcc-builder/build/sdcc-build/orig/sdcc/src/pic14/gen.c:2358:resultRemat *{*
                      00532 ;;; /home/sdcc-builder/build/sdcc-build/orig/sdcc/src/pic14/gen.c:2358:resultRemat *{*
                      00533 ;;; /home/sdcc-builder/build/sdcc-build/orig/sdcc/src/pic14/gen.c:2108:genCall *{*
                      00534 ;; ***  genCall  2110
                      00535 ;;      2158 left AOP_LIT
                      00536 ;;; /home/sdcc-builder/build/sdcc-build/orig/sdcc/src/pic14/gen.c:1357:mov2w_op *{*
                      00537 ;; >>> /home/sdcc-builder/build/sdcc-build/orig/sdcc/src/pic14/gen.c:1375:mov2w_op
0051                  00538 _00135_DS_:
                      00539         .line   58; "PB_driver.c"       arr[button].samples[1] = GPIO_GET_PORT_STATE(PORT_B,0);
0051   3000           00540         MOVLW   0x00
                      00541 ;;      2158 left AOP_LIT
                      00542 ;; >>> /home/sdcc-builder/build/sdcc-build/orig/sdcc/src/pic14/gen.c:2166:genCall
                      00543 ;; ***  popRegFromIdx,1059  , rIdx=0x7f
0052   00??           00544         MOVWF   STK00
                      00545 ;;; /home/sdcc-builder/build/sdcc-build/orig/sdcc/src/pic14/gen.c:1357:mov2w_op *{*
                      00546 ;; >>> /home/sdcc-builder/build/sdcc-build/orig/sdcc/src/pic14/gen.c:1375:mov2w_op
0053   3001           00547         MOVLW   0x01
                      00548 ;; >>> /home/sdcc-builder/build/sdcc-build/orig/sdcc/src/pic14/gen.c:2207:genCall
0054   0??? 0???      00549         PAGESEL _GPIO_GET_PORT_STATE
                      00550 ;; >>> /home/sdcc-builder/build/sdcc-build/orig/sdcc/src/pic14/gen.c:2215:genCall
0056   2???           00551         CALL    _GPIO_GET_PORT_STATE
                      00552 ;; >>> /home/sdcc-builder/build/sdcc-build/orig/sdcc/src/pic14/gen.c:2223:genCall
0057   0??? 0???      00553         PAGESEL $
                      00554 ;;      708 register type nRegs=1
                      00555 ;;; /home/sdcc-builder/build/sdcc-build/orig/sdcc/src/pic14/gen.c:1929:assignResultValue *{*
                      00556 ;; ***  assignResultValue  1931
                      00557 ;;      line = 1933 result -=-, size=0, left AOP_REG=r0x1053, size=1, right -=-, size=0
                      00558 ;; >>> /home/sdcc-builder/build/sdcc-build/orig/sdcc/src/pic14/gen.c:1407:movwf
                      00559 ;;      1126 rIdx = r0x1053 
0059   0??? 0???      00560         BANKSEL r0x1016
005B   00??           00561         MOVWF   r0x1016
                      00562 ;;      2238 left AOP_REG
                      00563 ;;; /home/sdcc-builder/build/sdcc-build/orig/sdcc/src/pic14/gen.c:2358:resultRemat *{*
                      00564 ;;; /home/sdcc-builder/build/sdcc-build/orig/sdcc/src/pic14/gen.c:6951:genPointerSet *{*
                      00565 ;; ***  genPointerSet  6952
                      00566 ;;; /home/sdcc-builder/build/sdcc-build/orig/sdcc/src/pic14/gen.c:6871:genNearPointerSet *{*
                      00567 ;; ***  genNearPointerSet  6872
                      00568 ;;      708 register type nRegs=2
                      00569 ;; ***  genNearPointerSet  6886
                      00570 ;;      708 register type nRegs=1
gpasm-1.5.0 #1285 (Sep 12 2016) obj\Debug\PB_   8-4-2020  19:47:27          PAGE 12


LOC    OBJECT CODE    LINE  SOURCE TEXT
  VALUE

                      00571 ;;      line = 6888 result AOP_REG=r0x1051, size=2, left -=-, size=0, right AOP_REG=r0x1053, size=1
                      00572 ;;; /home/sdcc-builder/build/sdcc-build/orig/sdcc/src/pic14/gen.c:1357:mov2w_op *{*
                      00573 ;; ***  mov2w  1395  offset=0
                      00574 ;; >>> /home/sdcc-builder/build/sdcc-build/orig/sdcc/src/pic14/gen.c:1400:mov2w
                      00575 ;;      1126 rIdx = r0x1051 
005C   08??           00576         MOVF    r0x1014,W
                      00577 ;; >>> /home/sdcc-builder/build/sdcc-build/orig/sdcc/src/pic14/gen.c:5851:setup_fsr
005D   1283 1303      00578         BANKSEL FSR
005F   0084           00579         MOVWF   FSR
                      00580 ;;; /home/sdcc-builder/build/sdcc-build/orig/sdcc/src/pic14/gen.c:5802:SetIrp *{*
                      00581 ;; >>> /home/sdcc-builder/build/sdcc-build/orig/sdcc/src/pic14/gen.c:5829:SetIrp
0060   1383           00582         BCF     STATUS,7
                      00583 ;; >>> /home/sdcc-builder/build/sdcc-build/orig/sdcc/src/pic14/gen.c:5832:SetIrp
0061   0??? 0???      00584         BANKSEL r0x1015
0063   18??           00585         BTFSC   r0x1015,0
                      00586 ;; >>> /home/sdcc-builder/build/sdcc-build/orig/sdcc/src/pic14/gen.c:5833:SetIrp
0064   1783           00587         BSF     STATUS,7
                      00588 ;; >>> /home/sdcc-builder/build/sdcc-build/orig/sdcc/src/pic14/gen.c:6638:emitPtrPut
                      00589 ;;      1126 rIdx = r0x1053 
0065   08??           00590         MOVF    r0x1016,W
                      00591 ;; >>> /home/sdcc-builder/build/sdcc-build/orig/sdcc/src/pic14/gen.c:6639:emitPtrPut
0066   1283 1303      00592         BANKSEL INDF
0068   0080           00593         MOVWF   INDF
                      00594 ;; ***  genNearPointerSet  6905
                      00595 ;;; /home/sdcc-builder/build/sdcc-build/orig/sdcc/src/pic14/gen.c:2358:resultRemat *{*
                      00596 ;;; /home/sdcc-builder/build/sdcc-build/orig/sdcc/src/pic14/gen.c:2820:genGoto *{*
                      00597 ;; >>> /home/sdcc-builder/build/sdcc-build/orig/sdcc/src/pic14/gen.c:2822:genGoto
                      00598 ;; ***  popGetLabel  key=6, label offset 34
                      00599         .line   59; "PB_driver.c"       break;
0069   2???           00600         GOTO    _00140_DS_
                      00601 ;;; /home/sdcc-builder/build/sdcc-build/orig/sdcc/src/pic14/gen.c:2358:resultRemat *{*
                      00602 ;;; /home/sdcc-builder/build/sdcc-build/orig/sdcc/src/pic14/gen.c:2802:genLabel *{*
                      00603 ;; ***  genLabel  2805
                      00604 ;;; /home/sdcc-builder/build/sdcc-build/orig/sdcc/src/pic14/gen.c:2358:resultRemat *{*
                      00605 ;;; /home/sdcc-builder/build/sdcc-build/orig/sdcc/src/pic14/gen.c:2358:resultRemat *{*
                      00606 ;;; /home/sdcc-builder/build/sdcc-build/orig/sdcc/src/pic14/gen.c:2358:resultRemat *{*
                      00607 ;;; /home/sdcc-builder/build/sdcc-build/orig/sdcc/src/pic14/gen.c:2108:genCall *{*
                      00608 ;; ***  genCall  2110
                      00609 ;;      2158 left AOP_LIT
                      00610 ;;; /home/sdcc-builder/build/sdcc-build/orig/sdcc/src/pic14/gen.c:1357:mov2w_op *{*
                      00611 ;; >>> /home/sdcc-builder/build/sdcc-build/orig/sdcc/src/pic14/gen.c:1375:mov2w_op
006A                  00612 _00136_DS_:
                      00613         .line   61; "PB_driver.c"       arr[button].samples[1] = GPIO_GET_PORT_STATE(PORT_B,1);
006A   3001           00614         MOVLW   0x01
                      00615 ;;      2158 left AOP_LIT
                      00616 ;; >>> /home/sdcc-builder/build/sdcc-build/orig/sdcc/src/pic14/gen.c:2166:genCall
                      00617 ;; ***  popRegFromIdx,1059  , rIdx=0x7f
006B   00??           00618         MOVWF   STK00
                      00619 ;;; /home/sdcc-builder/build/sdcc-build/orig/sdcc/src/pic14/gen.c:1357:mov2w_op *{*
                      00620 ;; >>> /home/sdcc-builder/build/sdcc-build/orig/sdcc/src/pic14/gen.c:1375:mov2w_op
006C   3001           00621         MOVLW   0x01
                      00622 ;; >>> /home/sdcc-builder/build/sdcc-build/orig/sdcc/src/pic14/gen.c:2207:genCall
006D   0??? 0???      00623         PAGESEL _GPIO_GET_PORT_STATE
gpasm-1.5.0 #1285 (Sep 12 2016) obj\Debug\PB_   8-4-2020  19:47:27          PAGE 13


LOC    OBJECT CODE    LINE  SOURCE TEXT
  VALUE

                      00624 ;; >>> /home/sdcc-builder/build/sdcc-build/orig/sdcc/src/pic14/gen.c:2215:genCall
006F   2???           00625         CALL    _GPIO_GET_PORT_STATE
                      00626 ;; >>> /home/sdcc-builder/build/sdcc-build/orig/sdcc/src/pic14/gen.c:2223:genCall
0070   0??? 0???      00627         PAGESEL $
                      00628 ;;      708 register type nRegs=1
                      00629 ;;; /home/sdcc-builder/build/sdcc-build/orig/sdcc/src/pic14/gen.c:1929:assignResultValue *{*
                      00630 ;; ***  assignResultValue  1931
                      00631 ;;      line = 1933 result -=-, size=0, left AOP_REG=r0x1053, size=1, right -=-, size=0
                      00632 ;; >>> /home/sdcc-builder/build/sdcc-build/orig/sdcc/src/pic14/gen.c:1407:movwf
                      00633 ;;      1126 rIdx = r0x1053 
0072   0??? 0???      00634         BANKSEL r0x1016
0074   00??           00635         MOVWF   r0x1016
                      00636 ;;      2238 left AOP_REG
                      00637 ;;; /home/sdcc-builder/build/sdcc-build/orig/sdcc/src/pic14/gen.c:2358:resultRemat *{*
                      00638 ;;; /home/sdcc-builder/build/sdcc-build/orig/sdcc/src/pic14/gen.c:6951:genPointerSet *{*
                      00639 ;; ***  genPointerSet  6952
                      00640 ;;; /home/sdcc-builder/build/sdcc-build/orig/sdcc/src/pic14/gen.c:6871:genNearPointerSet *{*
                      00641 ;; ***  genNearPointerSet  6872
                      00642 ;;      708 register type nRegs=2
                      00643 ;; ***  genNearPointerSet  6886
                      00644 ;;      708 register type nRegs=1
                      00645 ;;      line = 6888 result AOP_REG=r0x1051, size=2, left -=-, size=0, right AOP_REG=r0x1053, size=1
                      00646 ;;; /home/sdcc-builder/build/sdcc-build/orig/sdcc/src/pic14/gen.c:1357:mov2w_op *{*
                      00647 ;; ***  mov2w  1395  offset=0
                      00648 ;; >>> /home/sdcc-builder/build/sdcc-build/orig/sdcc/src/pic14/gen.c:1400:mov2w
                      00649 ;;      1126 rIdx = r0x1051 
0075   08??           00650         MOVF    r0x1014,W
                      00651 ;; >>> /home/sdcc-builder/build/sdcc-build/orig/sdcc/src/pic14/gen.c:5851:setup_fsr
0076   1283 1303      00652         BANKSEL FSR
0078   0084           00653         MOVWF   FSR
                      00654 ;;; /home/sdcc-builder/build/sdcc-build/orig/sdcc/src/pic14/gen.c:5802:SetIrp *{*
                      00655 ;; >>> /home/sdcc-builder/build/sdcc-build/orig/sdcc/src/pic14/gen.c:5829:SetIrp
0079   1383           00656         BCF     STATUS,7
                      00657 ;; >>> /home/sdcc-builder/build/sdcc-build/orig/sdcc/src/pic14/gen.c:5832:SetIrp
007A   0??? 0???      00658         BANKSEL r0x1015
007C   18??           00659         BTFSC   r0x1015,0
                      00660 ;; >>> /home/sdcc-builder/build/sdcc-build/orig/sdcc/src/pic14/gen.c:5833:SetIrp
007D   1783           00661         BSF     STATUS,7
                      00662 ;; >>> /home/sdcc-builder/build/sdcc-build/orig/sdcc/src/pic14/gen.c:6638:emitPtrPut
                      00663 ;;      1126 rIdx = r0x1053 
007E   08??           00664         MOVF    r0x1016,W
                      00665 ;; >>> /home/sdcc-builder/build/sdcc-build/orig/sdcc/src/pic14/gen.c:6639:emitPtrPut
007F   1283 1303      00666         BANKSEL INDF
0081   0080           00667         MOVWF   INDF
                      00668 ;; ***  genNearPointerSet  6905
                      00669 ;;; /home/sdcc-builder/build/sdcc-build/orig/sdcc/src/pic14/gen.c:2358:resultRemat *{*
                      00670 ;;; /home/sdcc-builder/build/sdcc-build/orig/sdcc/src/pic14/gen.c:2820:genGoto *{*
                      00671 ;; >>> /home/sdcc-builder/build/sdcc-build/orig/sdcc/src/pic14/gen.c:2822:genGoto
                      00672 ;; ***  popGetLabel  key=6, label offset 34
                      00673         .line   62; "PB_driver.c"       break;
0082   2???           00674         GOTO    _00140_DS_
                      00675 ;;; /home/sdcc-builder/build/sdcc-build/orig/sdcc/src/pic14/gen.c:2358:resultRemat *{*
                      00676 ;;; /home/sdcc-builder/build/sdcc-build/orig/sdcc/src/pic14/gen.c:2802:genLabel *{*
gpasm-1.5.0 #1285 (Sep 12 2016) obj\Debug\PB_   8-4-2020  19:47:27          PAGE 14


LOC    OBJECT CODE    LINE  SOURCE TEXT
  VALUE

                      00677 ;; ***  genLabel  2805
                      00678 ;;; /home/sdcc-builder/build/sdcc-build/orig/sdcc/src/pic14/gen.c:2358:resultRemat *{*
                      00679 ;;; /home/sdcc-builder/build/sdcc-build/orig/sdcc/src/pic14/gen.c:2358:resultRemat *{*
                      00680 ;;; /home/sdcc-builder/build/sdcc-build/orig/sdcc/src/pic14/gen.c:2358:resultRemat *{*
                      00681 ;;; /home/sdcc-builder/build/sdcc-build/orig/sdcc/src/pic14/gen.c:2108:genCall *{*
                      00682 ;; ***  genCall  2110
                      00683 ;;      2158 left AOP_LIT
                      00684 ;;; /home/sdcc-builder/build/sdcc-build/orig/sdcc/src/pic14/gen.c:1357:mov2w_op *{*
                      00685 ;; >>> /home/sdcc-builder/build/sdcc-build/orig/sdcc/src/pic14/gen.c:1375:mov2w_op
0083                  00686 _00137_DS_:
                      00687         .line   64; "PB_driver.c"       arr[button].samples[1] = GPIO_GET_PORT_STATE(PORT_B,2);
0083   3002           00688         MOVLW   0x02
                      00689 ;;      2158 left AOP_LIT
                      00690 ;; >>> /home/sdcc-builder/build/sdcc-build/orig/sdcc/src/pic14/gen.c:2166:genCall
                      00691 ;; ***  popRegFromIdx,1059  , rIdx=0x7f
0084   00??           00692         MOVWF   STK00
                      00693 ;;; /home/sdcc-builder/build/sdcc-build/orig/sdcc/src/pic14/gen.c:1357:mov2w_op *{*
                      00694 ;; >>> /home/sdcc-builder/build/sdcc-build/orig/sdcc/src/pic14/gen.c:1375:mov2w_op
0085   3001           00695         MOVLW   0x01
                      00696 ;; >>> /home/sdcc-builder/build/sdcc-build/orig/sdcc/src/pic14/gen.c:2207:genCall
0086   0??? 0???      00697         PAGESEL _GPIO_GET_PORT_STATE
                      00698 ;; >>> /home/sdcc-builder/build/sdcc-build/orig/sdcc/src/pic14/gen.c:2215:genCall
0088   2???           00699         CALL    _GPIO_GET_PORT_STATE
                      00700 ;; >>> /home/sdcc-builder/build/sdcc-build/orig/sdcc/src/pic14/gen.c:2223:genCall
0089   0??? 0???      00701         PAGESEL $
                      00702 ;;      708 register type nRegs=1
                      00703 ;;; /home/sdcc-builder/build/sdcc-build/orig/sdcc/src/pic14/gen.c:1929:assignResultValue *{*
                      00704 ;; ***  assignResultValue  1931
                      00705 ;;      line = 1933 result -=-, size=0, left AOP_REG=r0x1053, size=1, right -=-, size=0
                      00706 ;; >>> /home/sdcc-builder/build/sdcc-build/orig/sdcc/src/pic14/gen.c:1407:movwf
                      00707 ;;      1126 rIdx = r0x1053 
008B   0??? 0???      00708         BANKSEL r0x1016
008D   00??           00709         MOVWF   r0x1016
                      00710 ;;      2238 left AOP_REG
                      00711 ;;; /home/sdcc-builder/build/sdcc-build/orig/sdcc/src/pic14/gen.c:2358:resultRemat *{*
                      00712 ;;; /home/sdcc-builder/build/sdcc-build/orig/sdcc/src/pic14/gen.c:6951:genPointerSet *{*
                      00713 ;; ***  genPointerSet  6952
                      00714 ;;; /home/sdcc-builder/build/sdcc-build/orig/sdcc/src/pic14/gen.c:6871:genNearPointerSet *{*
                      00715 ;; ***  genNearPointerSet  6872
                      00716 ;;      708 register type nRegs=2
                      00717 ;; ***  genNearPointerSet  6886
                      00718 ;;      708 register type nRegs=1
                      00719 ;;      line = 6888 result AOP_REG=r0x1051, size=2, left -=-, size=0, right AOP_REG=r0x1053, size=1
                      00720 ;;; /home/sdcc-builder/build/sdcc-build/orig/sdcc/src/pic14/gen.c:1357:mov2w_op *{*
                      00721 ;; ***  mov2w  1395  offset=0
                      00722 ;; >>> /home/sdcc-builder/build/sdcc-build/orig/sdcc/src/pic14/gen.c:1400:mov2w
                      00723 ;;      1126 rIdx = r0x1051 
008E   08??           00724         MOVF    r0x1014,W
                      00725 ;; >>> /home/sdcc-builder/build/sdcc-build/orig/sdcc/src/pic14/gen.c:5851:setup_fsr
008F   1283 1303      00726         BANKSEL FSR
0091   0084           00727         MOVWF   FSR
                      00728 ;;; /home/sdcc-builder/build/sdcc-build/orig/sdcc/src/pic14/gen.c:5802:SetIrp *{*
                      00729 ;; >>> /home/sdcc-builder/build/sdcc-build/orig/sdcc/src/pic14/gen.c:5829:SetIrp
gpasm-1.5.0 #1285 (Sep 12 2016) obj\Debug\PB_   8-4-2020  19:47:27          PAGE 15


LOC    OBJECT CODE    LINE  SOURCE TEXT
  VALUE

0092   1383           00730         BCF     STATUS,7
                      00731 ;; >>> /home/sdcc-builder/build/sdcc-build/orig/sdcc/src/pic14/gen.c:5832:SetIrp
0093   0??? 0???      00732         BANKSEL r0x1015
0095   18??           00733         BTFSC   r0x1015,0
                      00734 ;; >>> /home/sdcc-builder/build/sdcc-build/orig/sdcc/src/pic14/gen.c:5833:SetIrp
0096   1783           00735         BSF     STATUS,7
                      00736 ;; >>> /home/sdcc-builder/build/sdcc-build/orig/sdcc/src/pic14/gen.c:6638:emitPtrPut
                      00737 ;;      1126 rIdx = r0x1053 
0097   08??           00738         MOVF    r0x1016,W
                      00739 ;; >>> /home/sdcc-builder/build/sdcc-build/orig/sdcc/src/pic14/gen.c:6639:emitPtrPut
0098   1283 1303      00740         BANKSEL INDF
009A   0080           00741         MOVWF   INDF
                      00742 ;; ***  genNearPointerSet  6905
                      00743 ;;; /home/sdcc-builder/build/sdcc-build/orig/sdcc/src/pic14/gen.c:2358:resultRemat *{*
                      00744 ;;; /home/sdcc-builder/build/sdcc-build/orig/sdcc/src/pic14/gen.c:2820:genGoto *{*
                      00745 ;; >>> /home/sdcc-builder/build/sdcc-build/orig/sdcc/src/pic14/gen.c:2822:genGoto
                      00746 ;; ***  popGetLabel  key=6, label offset 34
                      00747         .line   65; "PB_driver.c"       break;
009B   2???           00748         GOTO    _00140_DS_
                      00749 ;;; /home/sdcc-builder/build/sdcc-build/orig/sdcc/src/pic14/gen.c:2358:resultRemat *{*
                      00750 ;;; /home/sdcc-builder/build/sdcc-build/orig/sdcc/src/pic14/gen.c:2802:genLabel *{*
                      00751 ;; ***  genLabel  2805
                      00752 ;;; /home/sdcc-builder/build/sdcc-build/orig/sdcc/src/pic14/gen.c:2358:resultRemat *{*
                      00753 ;;; /home/sdcc-builder/build/sdcc-build/orig/sdcc/src/pic14/gen.c:2358:resultRemat *{*
                      00754 ;;; /home/sdcc-builder/build/sdcc-build/orig/sdcc/src/pic14/gen.c:2358:resultRemat *{*
                      00755 ;;; /home/sdcc-builder/build/sdcc-build/orig/sdcc/src/pic14/gen.c:2108:genCall *{*
                      00756 ;; ***  genCall  2110
                      00757 ;;      2158 left AOP_LIT
                      00758 ;;; /home/sdcc-builder/build/sdcc-build/orig/sdcc/src/pic14/gen.c:1357:mov2w_op *{*
                      00759 ;; >>> /home/sdcc-builder/build/sdcc-build/orig/sdcc/src/pic14/gen.c:1375:mov2w_op
009C                  00760 _00138_DS_:
                      00761         .line   67; "PB_driver.c"       arr[button].samples[1] = GPIO_GET_PORT_STATE(PORT_B,3);
009C   3003           00762         MOVLW   0x03
                      00763 ;;      2158 left AOP_LIT
                      00764 ;; >>> /home/sdcc-builder/build/sdcc-build/orig/sdcc/src/pic14/gen.c:2166:genCall
                      00765 ;; ***  popRegFromIdx,1059  , rIdx=0x7f
009D   00??           00766         MOVWF   STK00
                      00767 ;;; /home/sdcc-builder/build/sdcc-build/orig/sdcc/src/pic14/gen.c:1357:mov2w_op *{*
                      00768 ;; >>> /home/sdcc-builder/build/sdcc-build/orig/sdcc/src/pic14/gen.c:1375:mov2w_op
009E   3001           00769         MOVLW   0x01
                      00770 ;; >>> /home/sdcc-builder/build/sdcc-build/orig/sdcc/src/pic14/gen.c:2207:genCall
009F   0??? 0???      00771         PAGESEL _GPIO_GET_PORT_STATE
                      00772 ;; >>> /home/sdcc-builder/build/sdcc-build/orig/sdcc/src/pic14/gen.c:2215:genCall
00A1   2???           00773         CALL    _GPIO_GET_PORT_STATE
                      00774 ;; >>> /home/sdcc-builder/build/sdcc-build/orig/sdcc/src/pic14/gen.c:2223:genCall
00A2   0??? 0???      00775         PAGESEL $
                      00776 ;;      708 register type nRegs=1
                      00777 ;;; /home/sdcc-builder/build/sdcc-build/orig/sdcc/src/pic14/gen.c:1929:assignResultValue *{*
                      00778 ;; ***  assignResultValue  1931
                      00779 ;;      line = 1933 result -=-, size=0, left AOP_REG=r0x1053, size=1, right -=-, size=0
                      00780 ;; >>> /home/sdcc-builder/build/sdcc-build/orig/sdcc/src/pic14/gen.c:1407:movwf
                      00781 ;;      1126 rIdx = r0x1053 
00A4   0??? 0???      00782         BANKSEL r0x1016
gpasm-1.5.0 #1285 (Sep 12 2016) obj\Debug\PB_   8-4-2020  19:47:27          PAGE 16


LOC    OBJECT CODE    LINE  SOURCE TEXT
  VALUE

00A6   00??           00783         MOVWF   r0x1016
                      00784 ;;      2238 left AOP_REG
                      00785 ;;; /home/sdcc-builder/build/sdcc-build/orig/sdcc/src/pic14/gen.c:2358:resultRemat *{*
                      00786 ;;; /home/sdcc-builder/build/sdcc-build/orig/sdcc/src/pic14/gen.c:6951:genPointerSet *{*
                      00787 ;; ***  genPointerSet  6952
                      00788 ;;; /home/sdcc-builder/build/sdcc-build/orig/sdcc/src/pic14/gen.c:6871:genNearPointerSet *{*
                      00789 ;; ***  genNearPointerSet  6872
                      00790 ;;      708 register type nRegs=2
                      00791 ;; ***  genNearPointerSet  6886
                      00792 ;;      708 register type nRegs=1
                      00793 ;;      line = 6888 result AOP_REG=r0x1051, size=2, left -=-, size=0, right AOP_REG=r0x1053, size=1
                      00794 ;;; /home/sdcc-builder/build/sdcc-build/orig/sdcc/src/pic14/gen.c:1357:mov2w_op *{*
                      00795 ;; ***  mov2w  1395  offset=0
                      00796 ;; >>> /home/sdcc-builder/build/sdcc-build/orig/sdcc/src/pic14/gen.c:1400:mov2w
                      00797 ;;      1126 rIdx = r0x1051 
00A7   08??           00798         MOVF    r0x1014,W
                      00799 ;; >>> /home/sdcc-builder/build/sdcc-build/orig/sdcc/src/pic14/gen.c:5851:setup_fsr
00A8   1283 1303      00800         BANKSEL FSR
00AA   0084           00801         MOVWF   FSR
                      00802 ;;; /home/sdcc-builder/build/sdcc-build/orig/sdcc/src/pic14/gen.c:5802:SetIrp *{*
                      00803 ;; >>> /home/sdcc-builder/build/sdcc-build/orig/sdcc/src/pic14/gen.c:5829:SetIrp
00AB   1383           00804         BCF     STATUS,7
                      00805 ;; >>> /home/sdcc-builder/build/sdcc-build/orig/sdcc/src/pic14/gen.c:5832:SetIrp
00AC   0??? 0???      00806         BANKSEL r0x1015
00AE   18??           00807         BTFSC   r0x1015,0
                      00808 ;; >>> /home/sdcc-builder/build/sdcc-build/orig/sdcc/src/pic14/gen.c:5833:SetIrp
00AF   1783           00809         BSF     STATUS,7
                      00810 ;; >>> /home/sdcc-builder/build/sdcc-build/orig/sdcc/src/pic14/gen.c:6638:emitPtrPut
                      00811 ;;      1126 rIdx = r0x1053 
00B0   08??           00812         MOVF    r0x1016,W
                      00813 ;; >>> /home/sdcc-builder/build/sdcc-build/orig/sdcc/src/pic14/gen.c:6639:emitPtrPut
00B1   1283 1303      00814         BANKSEL INDF
00B3   0080           00815         MOVWF   INDF
                      00816 ;; ***  genNearPointerSet  6905
                      00817 ;;; /home/sdcc-builder/build/sdcc-build/orig/sdcc/src/pic14/gen.c:2358:resultRemat *{*
                      00818 ;;; /home/sdcc-builder/build/sdcc-build/orig/sdcc/src/pic14/gen.c:2802:genLabel *{*
                      00819 ;; ***  genLabel  2805
                      00820 ;;; /home/sdcc-builder/build/sdcc-build/orig/sdcc/src/pic14/gen.c:2358:resultRemat *{*
                      00821 ;; ***  genPlus  707
                      00822 ;;; /home/sdcc-builder/build/sdcc-build/orig/sdcc/src/pic14/genarith.c:708:genPlus *{*
                      00823 ;;      627
                      00824 ;;      aopForRemat 406
                      00825 ;;      432: rname _arr, val 0, const = 0
                      00826 ;;      708 register type nRegs=2
                      00827 ;;      708 register type nRegs=2
                      00828 ;;      837: aopGet AOP_PCODE type PO_IMMEDIATE
                      00829 ;;      _arr
                      00830 ;;      line = 714 result AOP_REG=r0x1051, size=2, left AOP_PCODE=_arr, size=2, right AOP_REG=r0x104D, s
                            ize=2
                      00831 ;;; /home/sdcc-builder/build/sdcc-build/orig/sdcc/src/pic14/genarith.c:159:genPlusIncr *{*
                      00832 ;; ***  genPlusIncr  161
                      00833 ;;      result AOP_REG, left AOP_PCODE, right AOP_REG
                      00834 ;; ***  genPlus  814
gpasm-1.5.0 #1285 (Sep 12 2016) obj\Debug\PB_   8-4-2020  19:47:27          PAGE 17


LOC    OBJECT CODE    LINE  SOURCE TEXT
  VALUE

                      00835 ;;      837: aopGet AOP_PCODE type PO_IMMEDIATE
                      00836 ;;      _arr
                      00837 ;; >>> /home/sdcc-builder/build/sdcc-build/orig/sdcc/src/pic14/genarith.c:823:genPlus
                      00838 ;;      1126 rIdx = r0x104D 
00B4                  00839 _00140_DS_:
                      00840         .line   73; "PB_driver.c"       state = arr[button].state;
00B4   0??? 0???      00841         BANKSEL r0x1010
00B6   08??           00842         MOVF    r0x1010,W
                      00843 ;; >>> /home/sdcc-builder/build/sdcc-build/orig/sdcc/src/pic14/genarith.c:832:genPlus
00B7   3E??           00844         ADDLW   (_arr + 0)
                      00845 ;; >>> /home/sdcc-builder/build/sdcc-build/orig/sdcc/src/pic14/genarith.c:833:genPlus
                      00846 ;;      1126 rIdx = r0x1051 
00B8   00??           00847         MOVWF   r0x1014
                      00848 ;; >>> /home/sdcc-builder/build/sdcc-build/orig/sdcc/src/pic14/genarith.c:880:genPlus
00B9   30??           00849         MOVLW   high (_arr + 0)
                      00850 ;; >>> /home/sdcc-builder/build/sdcc-build/orig/sdcc/src/pic14/genarith.c:881:genPlus
                      00851 ;;      1126 rIdx = r0x1052 
00BA   00??           00852         MOVWF   r0x1015
                      00853 ;; >>> /home/sdcc-builder/build/sdcc-build/orig/sdcc/src/pic14/genarith.c:883:genPlus
                      00854 ;;      1126 rIdx = r0x104E 
00BB   08??           00855         MOVF    r0x1011,W
                      00856 ;; >>> /home/sdcc-builder/build/sdcc-build/orig/sdcc/src/pic14/genarith.c:884:genPlus
00BC   1803           00857         BTFSC   STATUS,0
                      00858 ;; >>> /home/sdcc-builder/build/sdcc-build/orig/sdcc/src/pic14/genarith.c:885:genPlus
                      00859 ;;      1126 rIdx = r0x104E 
00BD   0F??           00860         INCFSZ  r0x1011,W
                      00861 ;; >>> /home/sdcc-builder/build/sdcc-build/orig/sdcc/src/pic14/genarith.c:886:genPlus
                      00862 ;;      1126 rIdx = r0x1052 
00BE   07??           00863         ADDWF   r0x1015,F
                      00864 ;;; /home/sdcc-builder/build/sdcc-build/orig/sdcc/src/pic14/gen.c:2358:resultRemat *{*
                      00865 ;;; /home/sdcc-builder/build/sdcc-build/orig/sdcc/src/pic14/gen.c:6399:genPointerGet *{*
                      00866 ;; ***  genPointerGet  6400
                      00867 ;;; /home/sdcc-builder/build/sdcc-build/orig/sdcc/src/pic14/gen.c:6285:genNearPointerGet *{*
                      00868 ;; ***  genNearPointerGet  6286
                      00869 ;;      708 register type nRegs=2
                      00870 ;; ***  genNearPointerGet  6302
                      00871 ;;      708 register type nRegs=1
                      00872 ;;; /home/sdcc-builder/build/sdcc-build/orig/sdcc/src/pic14/gen.c:1357:mov2w_op *{*
                      00873 ;; ***  mov2w  1395  offset=0
                      00874 ;; >>> /home/sdcc-builder/build/sdcc-build/orig/sdcc/src/pic14/gen.c:1400:mov2w
                      00875 ;;      1126 rIdx = r0x1051 
00BF   08??           00876         MOVF    r0x1014,W
                      00877 ;; >>> /home/sdcc-builder/build/sdcc-build/orig/sdcc/src/pic14/gen.c:5851:setup_fsr
00C0   1283 1303      00878         BANKSEL FSR
00C2   0084           00879         MOVWF   FSR
                      00880 ;;; /home/sdcc-builder/build/sdcc-build/orig/sdcc/src/pic14/gen.c:5802:SetIrp *{*
                      00881 ;; >>> /home/sdcc-builder/build/sdcc-build/orig/sdcc/src/pic14/gen.c:5829:SetIrp
00C3   1383           00882         BCF     STATUS,7
                      00883 ;; >>> /home/sdcc-builder/build/sdcc-build/orig/sdcc/src/pic14/gen.c:5832:SetIrp
00C4   0??? 0???      00884         BANKSEL r0x1015
00C6   18??           00885         BTFSC   r0x1015,0
                      00886 ;; >>> /home/sdcc-builder/build/sdcc-build/orig/sdcc/src/pic14/gen.c:5833:SetIrp
00C7   1783           00887         BSF     STATUS,7
gpasm-1.5.0 #1285 (Sep 12 2016) obj\Debug\PB_   8-4-2020  19:47:27          PAGE 18


LOC    OBJECT CODE    LINE  SOURCE TEXT
  VALUE

                      00888 ;; >>> /home/sdcc-builder/build/sdcc-build/orig/sdcc/src/pic14/gen.c:6060:emitPtrGet
00C8   1283 1303      00889         BANKSEL INDF
00CA   0800           00890         MOVF    INDF,W
                      00891 ;; >>> /home/sdcc-builder/build/sdcc-build/orig/sdcc/src/pic14/gen.c:1407:movwf
                      00892 ;;      1126 rIdx = r0x1053 
00CB   0??? 0???      00893         BANKSEL r0x1016
00CD   00??           00894         MOVWF   r0x1016
                      00895 ;;; /home/sdcc-builder/build/sdcc-build/orig/sdcc/src/pic14/gen.c:2358:resultRemat *{*
                      00896 ;; ***  genPlus  707
                      00897 ;;; /home/sdcc-builder/build/sdcc-build/orig/sdcc/src/pic14/genarith.c:708:genPlus *{*
                      00898 ;;      627
                      00899 ;;      aopForRemat 406
                      00900 ;;      432: rname _arr, val 0, const = 0
                      00901 ;;      708 register type nRegs=2
                      00902 ;;      708 register type nRegs=2
                      00903 ;;      837: aopGet AOP_PCODE type PO_IMMEDIATE
                      00904 ;;      _arr
                      00905 ;;      line = 714 result AOP_REG=r0x1051, size=2, left AOP_PCODE=_arr, size=2, right AOP_REG=r0x104D, s
                            ize=2
                      00906 ;;; /home/sdcc-builder/build/sdcc-build/orig/sdcc/src/pic14/genarith.c:159:genPlusIncr *{*
                      00907 ;; ***  genPlusIncr  161
                      00908 ;;      result AOP_REG, left AOP_PCODE, right AOP_REG
                      00909 ;; ***  genPlus  814
                      00910 ;;      837: aopGet AOP_PCODE type PO_IMMEDIATE
                      00911 ;;      _arr
                      00912 ;; >>> /home/sdcc-builder/build/sdcc-build/orig/sdcc/src/pic14/genarith.c:823:genPlus
                      00913 ;;      1126 rIdx = r0x104D 
                      00914         .line   74; "PB_driver.c"       var1 = arr[button].samples[0];
00CE   08??           00915         MOVF    r0x1010,W
                      00916 ;; >>> /home/sdcc-builder/build/sdcc-build/orig/sdcc/src/pic14/genarith.c:832:genPlus
00CF   3E??           00917         ADDLW   (_arr + 0)
                      00918 ;; >>> /home/sdcc-builder/build/sdcc-build/orig/sdcc/src/pic14/genarith.c:833:genPlus
                      00919 ;;      1126 rIdx = r0x1051 
00D0   00??           00920         MOVWF   r0x1014
                      00921 ;; >>> /home/sdcc-builder/build/sdcc-build/orig/sdcc/src/pic14/genarith.c:880:genPlus
00D1   30??           00922         MOVLW   high (_arr + 0)
                      00923 ;; >>> /home/sdcc-builder/build/sdcc-build/orig/sdcc/src/pic14/genarith.c:881:genPlus
                      00924 ;;      1126 rIdx = r0x1052 
00D2   00??           00925         MOVWF   r0x1015
                      00926 ;; >>> /home/sdcc-builder/build/sdcc-build/orig/sdcc/src/pic14/genarith.c:883:genPlus
                      00927 ;;      1126 rIdx = r0x104E 
00D3   08??           00928         MOVF    r0x1011,W
                      00929 ;; >>> /home/sdcc-builder/build/sdcc-build/orig/sdcc/src/pic14/genarith.c:884:genPlus
00D4   1803           00930         BTFSC   STATUS,0
                      00931 ;; >>> /home/sdcc-builder/build/sdcc-build/orig/sdcc/src/pic14/genarith.c:885:genPlus
                      00932 ;;      1126 rIdx = r0x104E 
00D5   0F??           00933         INCFSZ  r0x1011,W
                      00934 ;; >>> /home/sdcc-builder/build/sdcc-build/orig/sdcc/src/pic14/genarith.c:886:genPlus
                      00935 ;;      1126 rIdx = r0x1052 
00D6   07??           00936         ADDWF   r0x1015,F
                      00937 ;;; /home/sdcc-builder/build/sdcc-build/orig/sdcc/src/pic14/gen.c:2358:resultRemat *{*
                      00938 ;; ***  genPlus  707
                      00939 ;;; /home/sdcc-builder/build/sdcc-build/orig/sdcc/src/pic14/genarith.c:708:genPlus *{*
gpasm-1.5.0 #1285 (Sep 12 2016) obj\Debug\PB_   8-4-2020  19:47:27          PAGE 19


LOC    OBJECT CODE    LINE  SOURCE TEXT
  VALUE

                      00940 ;;      708 register type nRegs=2
                      00941 ;;      708 register type nRegs=2
                      00942 ;;      line = 714 result AOP_REG=r0x1054, size=2, left AOP_REG=r0x1051, size=2, right AOP_LIT=0x01, siz
                            e=1
                      00943 ;;; /home/sdcc-builder/build/sdcc-build/orig/sdcc/src/pic14/genarith.c:159:genPlusIncr *{*
                      00944 ;; ***  genPlusIncr  161
                      00945 ;;      result AOP_REG, left AOP_REG, right AOP_LIT
                      00946 ;;      genPlusIncr  173
                      00947 ;;      genPlusIncr  197
                      00948 ;;      adding lit to something. size 2
                      00949 ;;; /home/sdcc-builder/build/sdcc-build/orig/sdcc/src/pic14/genarith.c:286:genAddLit *{*
                      00950 ;; ***  genAddLit  287
                      00951 ;;  left and result aren't same genAddLit  537
                      00952 ;; >>> /home/sdcc-builder/build/sdcc-build/orig/sdcc/src/pic14/genarith.c:601:genAddLit
00D7   3001           00953         MOVLW   0x01
                      00954 ;; >>> /home/sdcc-builder/build/sdcc-build/orig/sdcc/src/pic14/genarith.c:602:genAddLit
                      00955 ;;      1126 rIdx = r0x1051 
00D8   07??           00956         ADDWF   r0x1014,W
                      00957 ;;; /home/sdcc-builder/build/sdcc-build/orig/sdcc/src/pic14/genarith.c:270:emitMOVWF *{*
                      00958 ;; >>> /home/sdcc-builder/build/sdcc-build/orig/sdcc/src/pic14/genarith.c:274:emitMOVWF
                      00959 ;;      1126 rIdx = r0x1054 
00D9   00??           00960         MOVWF   r0x1017
                      00961 ;; >>> /home/sdcc-builder/build/sdcc-build/orig/sdcc/src/pic14/genarith.c:677:genAddLit
                      00962 ;;      1126 rIdx = r0x1055 
00DA   01??           00963         CLRF    r0x1018
                      00964 ;; >>> /home/sdcc-builder/build/sdcc-build/orig/sdcc/src/pic14/genarith.c:678:genAddLit
                      00965 ;;      1126 rIdx = r0x1055 
00DB   0D??           00966         RLF     r0x1018,F
                      00967 ;; >>> /home/sdcc-builder/build/sdcc-build/orig/sdcc/src/pic14/genarith.c:679:genAddLit
                      00968 ;;      1126 rIdx = r0x1052 
00DC   08??           00969         MOVF    r0x1015,W
                      00970 ;; >>> /home/sdcc-builder/build/sdcc-build/orig/sdcc/src/pic14/genarith.c:680:genAddLit
                      00971 ;;      1126 rIdx = r0x1055 
00DD   07??           00972         ADDWF   r0x1018,F
                      00973 ;; ***  addSign  1087
                      00974 ;;; /home/sdcc-builder/build/sdcc-build/orig/sdcc/src/pic14/genarith.c:1088:addSign *{*
                      00975 ;;; /home/sdcc-builder/build/sdcc-build/orig/sdcc/src/pic14/gen.c:2358:resultRemat *{*
                      00976 ;;; /home/sdcc-builder/build/sdcc-build/orig/sdcc/src/pic14/gen.c:6399:genPointerGet *{*
                      00977 ;; ***  genPointerGet  6400
                      00978 ;;; /home/sdcc-builder/build/sdcc-build/orig/sdcc/src/pic14/gen.c:6285:genNearPointerGet *{*
                      00979 ;; ***  genNearPointerGet  6286
                      00980 ;;      708 register type nRegs=2
                      00981 ;; ***  genNearPointerGet  6302
                      00982 ;;      708 register type nRegs=1
                      00983 ;;; /home/sdcc-builder/build/sdcc-build/orig/sdcc/src/pic14/gen.c:1357:mov2w_op *{*
                      00984 ;; ***  mov2w  1395  offset=0
                      00985 ;; >>> /home/sdcc-builder/build/sdcc-build/orig/sdcc/src/pic14/gen.c:1400:mov2w
                      00986 ;;      1126 rIdx = r0x1054 
00DE   08??           00987         MOVF    r0x1017,W
                      00988 ;; >>> /home/sdcc-builder/build/sdcc-build/orig/sdcc/src/pic14/gen.c:5851:setup_fsr
00DF   1283 1303      00989         BANKSEL FSR
00E1   0084           00990         MOVWF   FSR
                      00991 ;;; /home/sdcc-builder/build/sdcc-build/orig/sdcc/src/pic14/gen.c:5802:SetIrp *{*
gpasm-1.5.0 #1285 (Sep 12 2016) obj\Debug\PB_   8-4-2020  19:47:27          PAGE 20


LOC    OBJECT CODE    LINE  SOURCE TEXT
  VALUE

                      00992 ;; >>> /home/sdcc-builder/build/sdcc-build/orig/sdcc/src/pic14/gen.c:5829:SetIrp
00E2   1383           00993         BCF     STATUS,7
                      00994 ;; >>> /home/sdcc-builder/build/sdcc-build/orig/sdcc/src/pic14/gen.c:5832:SetIrp
00E3   0??? 0???      00995         BANKSEL r0x1018
00E5   18??           00996         BTFSC   r0x1018,0
                      00997 ;; >>> /home/sdcc-builder/build/sdcc-build/orig/sdcc/src/pic14/gen.c:5833:SetIrp
00E6   1783           00998         BSF     STATUS,7
                      00999 ;; >>> /home/sdcc-builder/build/sdcc-build/orig/sdcc/src/pic14/gen.c:6060:emitPtrGet
00E7   1283 1303      01000         BANKSEL INDF
00E9   0800           01001         MOVF    INDF,W
                      01002 ;; >>> /home/sdcc-builder/build/sdcc-build/orig/sdcc/src/pic14/gen.c:1407:movwf
                      01003 ;;      1126 rIdx = r0x1056 
00EA   0??? 0???      01004         BANKSEL r0x1019
00EC   00??           01005         MOVWF   r0x1019
                      01006 ;;; /home/sdcc-builder/build/sdcc-build/orig/sdcc/src/pic14/gen.c:2358:resultRemat *{*
                      01007 ;; ***  genPlus  707
                      01008 ;;; /home/sdcc-builder/build/sdcc-build/orig/sdcc/src/pic14/genarith.c:708:genPlus *{*
                      01009 ;;      708 register type nRegs=2
                      01010 ;;      708 register type nRegs=2
                      01011 ;;      line = 714 result AOP_REG=r0x1054, size=2, left AOP_REG=r0x1051, size=2, right AOP_LIT=0x02, siz
                            e=1
                      01012 ;;; /home/sdcc-builder/build/sdcc-build/orig/sdcc/src/pic14/genarith.c:159:genPlusIncr *{*
                      01013 ;; ***  genPlusIncr  161
                      01014 ;;      result AOP_REG, left AOP_REG, right AOP_LIT
                      01015 ;;      genPlusIncr  173
                      01016 ;;      genPlusIncr  197
                      01017 ;;      adding lit to something. size 2
                      01018 ;;; /home/sdcc-builder/build/sdcc-build/orig/sdcc/src/pic14/genarith.c:286:genAddLit *{*
                      01019 ;; ***  genAddLit  287
                      01020 ;;  left and result aren't same genAddLit  537
                      01021 ;; >>> /home/sdcc-builder/build/sdcc-build/orig/sdcc/src/pic14/genarith.c:601:genAddLit
                      01022         .line   75; "PB_driver.c"       var2 = arr[button].samples[1];
00ED   3002           01023         MOVLW   0x02
                      01024 ;; >>> /home/sdcc-builder/build/sdcc-build/orig/sdcc/src/pic14/genarith.c:602:genAddLit
                      01025 ;;      1126 rIdx = r0x1051 
00EE   07??           01026         ADDWF   r0x1014,W
                      01027 ;;; /home/sdcc-builder/build/sdcc-build/orig/sdcc/src/pic14/genarith.c:270:emitMOVWF *{*
                      01028 ;; >>> /home/sdcc-builder/build/sdcc-build/orig/sdcc/src/pic14/genarith.c:274:emitMOVWF
                      01029 ;;      1126 rIdx = r0x1054 
00EF   00??           01030         MOVWF   r0x1017
                      01031 ;; >>> /home/sdcc-builder/build/sdcc-build/orig/sdcc/src/pic14/genarith.c:677:genAddLit
                      01032 ;;      1126 rIdx = r0x1055 
00F0   01??           01033         CLRF    r0x1018
                      01034 ;; >>> /home/sdcc-builder/build/sdcc-build/orig/sdcc/src/pic14/genarith.c:678:genAddLit
                      01035 ;;      1126 rIdx = r0x1055 
00F1   0D??           01036         RLF     r0x1018,F
                      01037 ;; >>> /home/sdcc-builder/build/sdcc-build/orig/sdcc/src/pic14/genarith.c:679:genAddLit
                      01038 ;;      1126 rIdx = r0x1052 
00F2   08??           01039         MOVF    r0x1015,W
                      01040 ;; >>> /home/sdcc-builder/build/sdcc-build/orig/sdcc/src/pic14/genarith.c:680:genAddLit
                      01041 ;;      1126 rIdx = r0x1055 
00F3   07??           01042         ADDWF   r0x1018,F
                      01043 ;; ***  addSign  1087
gpasm-1.5.0 #1285 (Sep 12 2016) obj\Debug\PB_   8-4-2020  19:47:27          PAGE 21


LOC    OBJECT CODE    LINE  SOURCE TEXT
  VALUE

                      01044 ;;; /home/sdcc-builder/build/sdcc-build/orig/sdcc/src/pic14/genarith.c:1088:addSign *{*
                      01045 ;;; /home/sdcc-builder/build/sdcc-build/orig/sdcc/src/pic14/gen.c:2358:resultRemat *{*
                      01046 ;;; /home/sdcc-builder/build/sdcc-build/orig/sdcc/src/pic14/gen.c:6399:genPointerGet *{*
                      01047 ;; ***  genPointerGet  6400
                      01048 ;;; /home/sdcc-builder/build/sdcc-build/orig/sdcc/src/pic14/gen.c:6285:genNearPointerGet *{*
                      01049 ;; ***  genNearPointerGet  6286
                      01050 ;;      708 register type nRegs=2
                      01051 ;; ***  genNearPointerGet  6302
                      01052 ;;      708 register type nRegs=1
                      01053 ;;; /home/sdcc-builder/build/sdcc-build/orig/sdcc/src/pic14/gen.c:1357:mov2w_op *{*
                      01054 ;; ***  mov2w  1395  offset=0
                      01055 ;; >>> /home/sdcc-builder/build/sdcc-build/orig/sdcc/src/pic14/gen.c:1400:mov2w
                      01056 ;;      1126 rIdx = r0x1054 
00F4   08??           01057         MOVF    r0x1017,W
                      01058 ;; >>> /home/sdcc-builder/build/sdcc-build/orig/sdcc/src/pic14/gen.c:5851:setup_fsr
00F5   1283 1303      01059         BANKSEL FSR
00F7   0084           01060         MOVWF   FSR
                      01061 ;;; /home/sdcc-builder/build/sdcc-build/orig/sdcc/src/pic14/gen.c:5802:SetIrp *{*
                      01062 ;; >>> /home/sdcc-builder/build/sdcc-build/orig/sdcc/src/pic14/gen.c:5829:SetIrp
00F8   1383           01063         BCF     STATUS,7
                      01064 ;; >>> /home/sdcc-builder/build/sdcc-build/orig/sdcc/src/pic14/gen.c:5832:SetIrp
00F9   0??? 0???      01065         BANKSEL r0x1018
00FB   18??           01066         BTFSC   r0x1018,0
                      01067 ;; >>> /home/sdcc-builder/build/sdcc-build/orig/sdcc/src/pic14/gen.c:5833:SetIrp
00FC   1783           01068         BSF     STATUS,7
                      01069 ;; >>> /home/sdcc-builder/build/sdcc-build/orig/sdcc/src/pic14/gen.c:6060:emitPtrGet
00FD   1283 1303      01070         BANKSEL INDF
00FF   0800           01071         MOVF    INDF,W
                      01072 ;; >>> /home/sdcc-builder/build/sdcc-build/orig/sdcc/src/pic14/gen.c:1407:movwf
                      01073 ;;      1126 rIdx = r0x1057 
0100   0??? 0???      01074         BANKSEL r0x101A
0102   00??           01075         MOVWF   r0x101A
                      01076 ;;; /home/sdcc-builder/build/sdcc-build/orig/sdcc/src/pic14/gen.c:2358:resultRemat *{*
                      01077 ;;; /home/sdcc-builder/build/sdcc-build/orig/sdcc/src/pic14/gen.c:3616:genCmpGt *{*
                      01078 ;; ***  genCmpGt  3617
                      01079 ;;      708 register type nRegs=1
                      01080 ;;; /home/sdcc-builder/build/sdcc-build/orig/sdcc/src/pic14/gen.c:3354:genCmp *{*
                      01081 ;;swapping arguments (AOP_TYPEs 1/2)
                      01082 ;;unsigned compare: left >= lit(0x4=4), size=1
                      01083 ;; >>> /home/sdcc-builder/build/sdcc-build/orig/sdcc/src/pic14/gen.c:3325:pic14_mov2w_regOrLit
                      01084         .line   76; "PB_driver.c"       switch(state){
0103   3004           01085         MOVLW   0x04
                      01086 ;; >>> /home/sdcc-builder/build/sdcc-build/orig/sdcc/src/pic14/gen.c:3492:genCmp
                      01087 ;;      1126 rIdx = r0x1053 
0104   02??           01088         SUBWF   r0x1016,W
                      01089 ;;; /home/sdcc-builder/build/sdcc-build/orig/sdcc/src/pic14/gen.c:3297:genSkipc *{*
                      01090 ;; >>> /home/sdcc-builder/build/sdcc-build/orig/sdcc/src/pic14/gen.c:3302:genSkipc
0105   1803           01091         BTFSC   STATUS,0
                      01092 ;; >>> /home/sdcc-builder/build/sdcc-build/orig/sdcc/src/pic14/gen.c:3306:genSkipc
                      01093 ;; ***  popGetLabel  key=25, label offset 34
0106   2???           01094         GOTO    _00159_DS_
                      01095 ;;genSkipc:3307: created from rifx:00000000047A5780
                      01096 ;;; /home/sdcc-builder/build/sdcc-build/orig/sdcc/src/pic14/gen.c:2358:resultRemat *{*
gpasm-1.5.0 #1285 (Sep 12 2016) obj\Debug\PB_   8-4-2020  19:47:27          PAGE 22


LOC    OBJECT CODE    LINE  SOURCE TEXT
  VALUE

                      01097 ;;; /home/sdcc-builder/build/sdcc-build/orig/sdcc/src/pic14/gen.c:2358:resultRemat *{*
                      01098 ;;; /home/sdcc-builder/build/sdcc-build/orig/sdcc/src/pic14/gen.c:7337:genJumpTab *{*
                      01099 ;; ***  genJumpTab  7338
                      01100 ;;      708 register type nRegs=1
                      01101 ;; >>> /home/sdcc-builder/build/sdcc-build/orig/sdcc/src/pic14/gen.c:7353:genJumpTab
                      01102 ;; ***  popGetLabel  key=68, label offset 34
0107   30??           01103         MOVLW   HIGH(_00202_DS_)
                      01104 ;; >>> /home/sdcc-builder/build/sdcc-build/orig/sdcc/src/pic14/gen.c:7354:genJumpTab
0108   1283 1303      01105         BANKSEL PCLATH
010A   008A           01106         MOVWF   PCLATH
                      01107 ;; >>> /home/sdcc-builder/build/sdcc-build/orig/sdcc/src/pic14/gen.c:7355:genJumpTab
                      01108 ;; ***  popGetLabel  key=68, label offset 34
010B   30??           01109         MOVLW   _00202_DS_
                      01110 ;; >>> /home/sdcc-builder/build/sdcc-build/orig/sdcc/src/pic14/gen.c:7356:genJumpTab
                      01111 ;;      1126 rIdx = r0x1053 
010C   0??? 0???      01112         BANKSEL r0x1016
010E   07??           01113         ADDWF   r0x1016,W
                      01114 ;; >>> /home/sdcc-builder/build/sdcc-build/orig/sdcc/src/pic14/gen.c:7357:genJumpTab
010F   1C03           01115         BTFSS   STATUS,0
0110   2???           01116         GOTO    _00002_DS_
                      01117 ;; >>> /home/sdcc-builder/build/sdcc-build/orig/sdcc/src/pic14/gen.c:7358:genJumpTab
0111   1283 1303      01118         BANKSEL PCLATH
0113   0A8A           01119         INCF    PCLATH,F
                      01120 ;; >>> /home/sdcc-builder/build/sdcc-build/orig/sdcc/src/pic14/gen.c:7359:genJumpTab
0114                  01121 _00002_DS_:
0114   0082           01122         MOVWF   PCL
                      01123 ;; >>> /home/sdcc-builder/build/sdcc-build/orig/sdcc/src/pic14/gen.c:7368:genJumpTab
                      01124 ;; ***  popGetLabel  key=7, label offset 34
0115                  01125 _00202_DS_:
0115   2???           01126         GOTO    _00141_DS_
                      01127 ;; >>> /home/sdcc-builder/build/sdcc-build/orig/sdcc/src/pic14/gen.c:7368:genJumpTab
                      01128 ;; ***  popGetLabel  key=11, label offset 34
0116   2???           01129         GOTO    _00145_DS_
                      01130 ;; >>> /home/sdcc-builder/build/sdcc-build/orig/sdcc/src/pic14/gen.c:7368:genJumpTab
                      01131 ;; ***  popGetLabel  key=14, label offset 34
0117   2???           01132         GOTO    _00148_DS_
                      01133 ;; >>> /home/sdcc-builder/build/sdcc-build/orig/sdcc/src/pic14/gen.c:7368:genJumpTab
                      01134 ;; ***  popGetLabel  key=18, label offset 34
0118   2???           01135         GOTO    _00152_DS_
                      01136 ;;; /home/sdcc-builder/build/sdcc-build/orig/sdcc/src/pic14/gen.c:2358:resultRemat *{*
                      01137 ;;; /home/sdcc-builder/build/sdcc-build/orig/sdcc/src/pic14/gen.c:2802:genLabel *{*
                      01138 ;; ***  genLabel  2805
                      01139 ;;; /home/sdcc-builder/build/sdcc-build/orig/sdcc/src/pic14/gen.c:2358:resultRemat *{*
                      01140 ;;; /home/sdcc-builder/build/sdcc-build/orig/sdcc/src/pic14/gen.c:7024:genIfx *{*
                      01141 ;; ***  genIfx  7025
                      01142 ;;      708 register type nRegs=1
                      01143 ;; ***  pic14_toBoolean  1515
                      01144 ;; ***  mov2w  1395  offset=0
                      01145 ;; >>> /home/sdcc-builder/build/sdcc-build/orig/sdcc/src/pic14/gen.c:1400:mov2w
                      01146 ;;      1126 rIdx = r0x1056 
0119                  01147 _00141_DS_:
                      01148         .line   78; "PB_driver.c"       if(var1 == PRESSED_VOLTAGE && var2 == PRESSED_VOLTAGE){
0119   0??? 0???      01149         BANKSEL r0x1019
gpasm-1.5.0 #1285 (Sep 12 2016) obj\Debug\PB_   8-4-2020  19:47:27          PAGE 23


LOC    OBJECT CODE    LINE  SOURCE TEXT
  VALUE

011B   08??           01150         MOVF    r0x1019,W
                      01151 ;; >>> /home/sdcc-builder/build/sdcc-build/orig/sdcc/src/pic14/gen.c:7073:genIfx
011C   1D03           01152         BTFSS   STATUS,2
                      01153 ;; >>> /home/sdcc-builder/build/sdcc-build/orig/sdcc/src/pic14/gen.c:7074:genIfx
                      01154 ;; ***  popGetLabel  key=25, label offset 34
011D   2???           01155         GOTO    _00159_DS_
                      01156 ;;; /home/sdcc-builder/build/sdcc-build/orig/sdcc/src/pic14/gen.c:2358:resultRemat *{*
                      01157 ;;; /home/sdcc-builder/build/sdcc-build/orig/sdcc/src/pic14/gen.c:7024:genIfx *{*
                      01158 ;; ***  genIfx  7025
                      01159 ;;      708 register type nRegs=1
                      01160 ;; ***  pic14_toBoolean  1515
                      01161 ;; ***  mov2w  1395  offset=0
                      01162 ;; >>> /home/sdcc-builder/build/sdcc-build/orig/sdcc/src/pic14/gen.c:1400:mov2w
                      01163 ;;      1126 rIdx = r0x1057 
011E   08??           01164         MOVF    r0x101A,W
                      01165 ;; >>> /home/sdcc-builder/build/sdcc-build/orig/sdcc/src/pic14/gen.c:7073:genIfx
011F   1D03           01166         BTFSS   STATUS,2
                      01167 ;; >>> /home/sdcc-builder/build/sdcc-build/orig/sdcc/src/pic14/gen.c:7074:genIfx
                      01168 ;; ***  popGetLabel  key=25, label offset 34
0120   2???           01169         GOTO    _00159_DS_
                      01170 ;;; /home/sdcc-builder/build/sdcc-build/orig/sdcc/src/pic14/gen.c:2358:resultRemat *{*
                      01171 ;;; /home/sdcc-builder/build/sdcc-build/orig/sdcc/src/pic14/gen.c:6951:genPointerSet *{*
                      01172 ;; ***  genPointerSet  6952
                      01173 ;;; /home/sdcc-builder/build/sdcc-build/orig/sdcc/src/pic14/gen.c:6871:genNearPointerSet *{*
                      01174 ;; ***  genNearPointerSet  6872
                      01175 ;;      708 register type nRegs=2
                      01176 ;; ***  genNearPointerSet  6886
                      01177 ;;      line = 6888 result AOP_REG=r0x1051, size=2, left -=-, size=0, right AOP_LIT=0x01, size=1
                      01178 ;;; /home/sdcc-builder/build/sdcc-build/orig/sdcc/src/pic14/gen.c:1357:mov2w_op *{*
                      01179 ;; ***  mov2w  1395  offset=0
                      01180 ;; >>> /home/sdcc-builder/build/sdcc-build/orig/sdcc/src/pic14/gen.c:1400:mov2w
                      01181 ;;      1126 rIdx = r0x1051 
                      01182         .line   79; "PB_driver.c"       arr[button].state = pre_pressed;
0121   08??           01183         MOVF    r0x1014,W
                      01184 ;; >>> /home/sdcc-builder/build/sdcc-build/orig/sdcc/src/pic14/gen.c:5851:setup_fsr
0122   1283 1303      01185         BANKSEL FSR
0124   0084           01186         MOVWF   FSR
                      01187 ;;; /home/sdcc-builder/build/sdcc-build/orig/sdcc/src/pic14/gen.c:5802:SetIrp *{*
                      01188 ;; >>> /home/sdcc-builder/build/sdcc-build/orig/sdcc/src/pic14/gen.c:5829:SetIrp
0125   1383           01189         BCF     STATUS,7
                      01190 ;; >>> /home/sdcc-builder/build/sdcc-build/orig/sdcc/src/pic14/gen.c:5832:SetIrp
0126   0??? 0???      01191         BANKSEL r0x1015
0128   18??           01192         BTFSC   r0x1015,0
                      01193 ;; >>> /home/sdcc-builder/build/sdcc-build/orig/sdcc/src/pic14/gen.c:5833:SetIrp
0129   1783           01194         BSF     STATUS,7
                      01195 ;; >>> /home/sdcc-builder/build/sdcc-build/orig/sdcc/src/pic14/gen.c:6636:emitPtrPut
012A   3001           01196         MOVLW   0x01
                      01197 ;; >>> /home/sdcc-builder/build/sdcc-build/orig/sdcc/src/pic14/gen.c:6639:emitPtrPut
012B   1283 1303      01198         BANKSEL INDF
012D   0080           01199         MOVWF   INDF
                      01200 ;; ***  genNearPointerSet  6905
                      01201 ;;; /home/sdcc-builder/build/sdcc-build/orig/sdcc/src/pic14/gen.c:2358:resultRemat *{*
                      01202 ;;; /home/sdcc-builder/build/sdcc-build/orig/sdcc/src/pic14/gen.c:2820:genGoto *{*
gpasm-1.5.0 #1285 (Sep 12 2016) obj\Debug\PB_   8-4-2020  19:47:27          PAGE 24


LOC    OBJECT CODE    LINE  SOURCE TEXT
  VALUE

                      01203 ;; >>> /home/sdcc-builder/build/sdcc-build/orig/sdcc/src/pic14/gen.c:2822:genGoto
                      01204 ;; ***  popGetLabel  key=25, label offset 34
                      01205         .line   81; "PB_driver.c"       break;
012E   2???           01206         GOTO    _00159_DS_
                      01207 ;;; /home/sdcc-builder/build/sdcc-build/orig/sdcc/src/pic14/gen.c:2358:resultRemat *{*
                      01208 ;;; /home/sdcc-builder/build/sdcc-build/orig/sdcc/src/pic14/gen.c:2802:genLabel *{*
                      01209 ;; ***  genLabel  2805
                      01210 ;;; /home/sdcc-builder/build/sdcc-build/orig/sdcc/src/pic14/gen.c:2358:resultRemat *{*
                      01211 ;;; /home/sdcc-builder/build/sdcc-build/orig/sdcc/src/pic14/gen.c:7024:genIfx *{*
                      01212 ;; ***  genIfx  7025
                      01213 ;;      708 register type nRegs=1
                      01214 ;; ***  pic14_toBoolean  1515
                      01215 ;; ***  mov2w  1395  offset=0
                      01216 ;; >>> /home/sdcc-builder/build/sdcc-build/orig/sdcc/src/pic14/gen.c:1400:mov2w
                      01217 ;;      1126 rIdx = r0x1057 
012F                  01218 _00145_DS_:
                      01219         .line   83; "PB_driver.c"       if(var2 == PRESSED_VOLTAGE){
012F   0??? 0???      01220         BANKSEL r0x101A
0131   08??           01221         MOVF    r0x101A,W
                      01222 ;; >>> /home/sdcc-builder/build/sdcc-build/orig/sdcc/src/pic14/gen.c:7073:genIfx
0132   1D03           01223         BTFSS   STATUS,2
                      01224 ;; >>> /home/sdcc-builder/build/sdcc-build/orig/sdcc/src/pic14/gen.c:7074:genIfx
                      01225 ;; ***  popGetLabel  key=25, label offset 34
0133   2???           01226         GOTO    _00159_DS_
                      01227 ;;; /home/sdcc-builder/build/sdcc-build/orig/sdcc/src/pic14/gen.c:2358:resultRemat *{*
                      01228 ;;; /home/sdcc-builder/build/sdcc-build/orig/sdcc/src/pic14/gen.c:6951:genPointerSet *{*
                      01229 ;; ***  genPointerSet  6952
                      01230 ;;; /home/sdcc-builder/build/sdcc-build/orig/sdcc/src/pic14/gen.c:6871:genNearPointerSet *{*
                      01231 ;; ***  genNearPointerSet  6872
                      01232 ;;      708 register type nRegs=2
                      01233 ;; ***  genNearPointerSet  6886
                      01234 ;;      line = 6888 result AOP_REG=r0x1051, size=2, left -=-, size=0, right AOP_LIT=0x02, size=1
                      01235 ;;; /home/sdcc-builder/build/sdcc-build/orig/sdcc/src/pic14/gen.c:1357:mov2w_op *{*
                      01236 ;; ***  mov2w  1395  offset=0
                      01237 ;; >>> /home/sdcc-builder/build/sdcc-build/orig/sdcc/src/pic14/gen.c:1400:mov2w
                      01238 ;;      1126 rIdx = r0x1051 
                      01239         .line   84; "PB_driver.c"       arr[button].state = pressed;
0134   08??           01240         MOVF    r0x1014,W
                      01241 ;; >>> /home/sdcc-builder/build/sdcc-build/orig/sdcc/src/pic14/gen.c:5851:setup_fsr
0135   1283 1303      01242         BANKSEL FSR
0137   0084           01243         MOVWF   FSR
                      01244 ;;; /home/sdcc-builder/build/sdcc-build/orig/sdcc/src/pic14/gen.c:5802:SetIrp *{*
                      01245 ;; >>> /home/sdcc-builder/build/sdcc-build/orig/sdcc/src/pic14/gen.c:5829:SetIrp
0138   1383           01246         BCF     STATUS,7
                      01247 ;; >>> /home/sdcc-builder/build/sdcc-build/orig/sdcc/src/pic14/gen.c:5832:SetIrp
0139   0??? 0???      01248         BANKSEL r0x1015
013B   18??           01249         BTFSC   r0x1015,0
                      01250 ;; >>> /home/sdcc-builder/build/sdcc-build/orig/sdcc/src/pic14/gen.c:5833:SetIrp
013C   1783           01251         BSF     STATUS,7
                      01252 ;; >>> /home/sdcc-builder/build/sdcc-build/orig/sdcc/src/pic14/gen.c:6636:emitPtrPut
013D   3002           01253         MOVLW   0x02
                      01254 ;; >>> /home/sdcc-builder/build/sdcc-build/orig/sdcc/src/pic14/gen.c:6639:emitPtrPut
013E   1283 1303      01255         BANKSEL INDF
gpasm-1.5.0 #1285 (Sep 12 2016) obj\Debug\PB_   8-4-2020  19:47:27          PAGE 25


LOC    OBJECT CODE    LINE  SOURCE TEXT
  VALUE

0140   0080           01256         MOVWF   INDF
                      01257 ;; ***  genNearPointerSet  6905
                      01258 ;;; /home/sdcc-builder/build/sdcc-build/orig/sdcc/src/pic14/gen.c:2358:resultRemat *{*
                      01259 ;;; /home/sdcc-builder/build/sdcc-build/orig/sdcc/src/pic14/gen.c:2820:genGoto *{*
                      01260 ;; >>> /home/sdcc-builder/build/sdcc-build/orig/sdcc/src/pic14/gen.c:2822:genGoto
                      01261 ;; ***  popGetLabel  key=25, label offset 34
                      01262         .line   86; "PB_driver.c"       break;
0141   2???           01263         GOTO    _00159_DS_
                      01264 ;;; /home/sdcc-builder/build/sdcc-build/orig/sdcc/src/pic14/gen.c:2358:resultRemat *{*
                      01265 ;;; /home/sdcc-builder/build/sdcc-build/orig/sdcc/src/pic14/gen.c:2802:genLabel *{*
                      01266 ;; ***  genLabel  2805
                      01267 ;;; /home/sdcc-builder/build/sdcc-build/orig/sdcc/src/pic14/gen.c:2358:resultRemat *{*
                      01268 ;;; /home/sdcc-builder/build/sdcc-build/orig/sdcc/src/pic14/gen.c:3689:genCmpEq *{*
                      01269 ;; ***  genCmpEq  3690
                      01270 ;; ifx is non-null
                      01271 ;;      708 register type nRegs=1
                      01272 ;;      line = 3701 result AOP_CRY=0x00, size=0, left AOP_REG=r0x1056, size=1, right AOP_LIT=0x01, size=
                            1
                      01273 ;; ***  mov2w  1395  offset=0
                      01274 ;; >>> /home/sdcc-builder/build/sdcc-build/orig/sdcc/src/pic14/gen.c:1400:mov2w
                      01275 ;;      1126 rIdx = r0x1056 
0142                  01276 _00148_DS_:
                      01277         .line   88; "PB_driver.c"       if(var1 == RELEASED_VOLTAGE && var2 == RELEASED_VOLTAGE){
0142   0??? 0???      01278         BANKSEL r0x1019
0144   08??           01279         MOVF    r0x1019,W
                      01280 ;; >>> /home/sdcc-builder/build/sdcc-build/orig/sdcc/src/pic14/gen.c:3769:genCmpEq
0145   3A01           01281         XORLW   0x01
                      01282 ;; >>> /home/sdcc-builder/build/sdcc-build/orig/sdcc/src/pic14/gen.c:3771:genCmpEq
0146   1D03           01283         BTFSS   STATUS,2
                      01284 ;; >>> /home/sdcc-builder/build/sdcc-build/orig/sdcc/src/pic14/gen.c:3774:genCmpEq
                      01285 ;; ***  popGetLabel  key=25, label offset 34
0147   2???           01286         GOTO    _00159_DS_
                      01287 ;;; /home/sdcc-builder/build/sdcc-build/orig/sdcc/src/pic14/gen.c:2358:resultRemat *{*
                      01288 ;;; /home/sdcc-builder/build/sdcc-build/orig/sdcc/src/pic14/gen.c:2358:resultRemat *{*
                      01289 ;;; /home/sdcc-builder/build/sdcc-build/orig/sdcc/src/pic14/gen.c:3689:genCmpEq *{*
                      01290 ;; ***  genCmpEq  3690
                      01291 ;; ifx is non-null
                      01292 ;;      708 register type nRegs=1
                      01293 ;;      line = 3701 result AOP_CRY=0x00, size=0, left AOP_REG=r0x1057, size=1, right AOP_LIT=0x01, size=
                            1
                      01294 ;; ***  mov2w  1395  offset=0
                      01295 ;; >>> /home/sdcc-builder/build/sdcc-build/orig/sdcc/src/pic14/gen.c:1400:mov2w
                      01296 ;;      1126 rIdx = r0x1057 
0148   08??           01297         MOVF    r0x101A,W
                      01298 ;; >>> /home/sdcc-builder/build/sdcc-build/orig/sdcc/src/pic14/gen.c:3769:genCmpEq
0149   3A01           01299         XORLW   0x01
                      01300 ;; >>> /home/sdcc-builder/build/sdcc-build/orig/sdcc/src/pic14/gen.c:3771:genCmpEq
014A   1D03           01301         BTFSS   STATUS,2
                      01302 ;; >>> /home/sdcc-builder/build/sdcc-build/orig/sdcc/src/pic14/gen.c:3774:genCmpEq
                      01303 ;; ***  popGetLabel  key=25, label offset 34
014B   2???           01304         GOTO    _00159_DS_
                      01305 ;;; /home/sdcc-builder/build/sdcc-build/orig/sdcc/src/pic14/gen.c:2358:resultRemat *{*
                      01306 ;;; /home/sdcc-builder/build/sdcc-build/orig/sdcc/src/pic14/gen.c:2358:resultRemat *{*
gpasm-1.5.0 #1285 (Sep 12 2016) obj\Debug\PB_   8-4-2020  19:47:27          PAGE 26


LOC    OBJECT CODE    LINE  SOURCE TEXT
  VALUE

                      01307 ;;; /home/sdcc-builder/build/sdcc-build/orig/sdcc/src/pic14/gen.c:6951:genPointerSet *{*
                      01308 ;; ***  genPointerSet  6952
                      01309 ;;; /home/sdcc-builder/build/sdcc-build/orig/sdcc/src/pic14/gen.c:6871:genNearPointerSet *{*
                      01310 ;; ***  genNearPointerSet  6872
                      01311 ;;      708 register type nRegs=2
                      01312 ;; ***  genNearPointerSet  6886
                      01313 ;;      line = 6888 result AOP_REG=r0x1051, size=2, left -=-, size=0, right AOP_LIT=0x03, size=1
                      01314 ;;; /home/sdcc-builder/build/sdcc-build/orig/sdcc/src/pic14/gen.c:1357:mov2w_op *{*
                      01315 ;; ***  mov2w  1395  offset=0
                      01316 ;; >>> /home/sdcc-builder/build/sdcc-build/orig/sdcc/src/pic14/gen.c:1400:mov2w
                      01317 ;;      1126 rIdx = r0x1051 
                      01318         .line   89; "PB_driver.c"       arr[button].state = pre_released;
014C   08??           01319         MOVF    r0x1014,W
                      01320 ;; >>> /home/sdcc-builder/build/sdcc-build/orig/sdcc/src/pic14/gen.c:5851:setup_fsr
014D   1283 1303      01321         BANKSEL FSR
014F   0084           01322         MOVWF   FSR
                      01323 ;;; /home/sdcc-builder/build/sdcc-build/orig/sdcc/src/pic14/gen.c:5802:SetIrp *{*
                      01324 ;; >>> /home/sdcc-builder/build/sdcc-build/orig/sdcc/src/pic14/gen.c:5829:SetIrp
0150   1383           01325         BCF     STATUS,7
                      01326 ;; >>> /home/sdcc-builder/build/sdcc-build/orig/sdcc/src/pic14/gen.c:5832:SetIrp
0151   0??? 0???      01327         BANKSEL r0x1015
0153   18??           01328         BTFSC   r0x1015,0
                      01329 ;; >>> /home/sdcc-builder/build/sdcc-build/orig/sdcc/src/pic14/gen.c:5833:SetIrp
0154   1783           01330         BSF     STATUS,7
                      01331 ;; >>> /home/sdcc-builder/build/sdcc-build/orig/sdcc/src/pic14/gen.c:6636:emitPtrPut
0155   3003           01332         MOVLW   0x03
                      01333 ;; >>> /home/sdcc-builder/build/sdcc-build/orig/sdcc/src/pic14/gen.c:6639:emitPtrPut
0156   1283 1303      01334         BANKSEL INDF
0158   0080           01335         MOVWF   INDF
                      01336 ;; ***  genNearPointerSet  6905
                      01337 ;;; /home/sdcc-builder/build/sdcc-build/orig/sdcc/src/pic14/gen.c:2358:resultRemat *{*
                      01338 ;;; /home/sdcc-builder/build/sdcc-build/orig/sdcc/src/pic14/gen.c:2820:genGoto *{*
                      01339 ;; >>> /home/sdcc-builder/build/sdcc-build/orig/sdcc/src/pic14/gen.c:2822:genGoto
                      01340 ;; ***  popGetLabel  key=25, label offset 34
                      01341         .line   91; "PB_driver.c"       break;
0159   2???           01342         GOTO    _00159_DS_
                      01343 ;;; /home/sdcc-builder/build/sdcc-build/orig/sdcc/src/pic14/gen.c:2358:resultRemat *{*
                      01344 ;;; /home/sdcc-builder/build/sdcc-build/orig/sdcc/src/pic14/gen.c:2802:genLabel *{*
                      01345 ;; ***  genLabel  2805
                      01346 ;;; /home/sdcc-builder/build/sdcc-build/orig/sdcc/src/pic14/gen.c:2358:resultRemat *{*
                      01347 ;;; /home/sdcc-builder/build/sdcc-build/orig/sdcc/src/pic14/gen.c:3689:genCmpEq *{*
                      01348 ;; ***  genCmpEq  3690
                      01349 ;; ifx is non-null
                      01350 ;;      708 register type nRegs=1
                      01351 ;;      line = 3701 result AOP_CRY=0x00, size=0, left AOP_REG=r0x1057, size=1, right AOP_LIT=0x01, size=
                            1
                      01352 ;; ***  mov2w  1395  offset=0
                      01353 ;; >>> /home/sdcc-builder/build/sdcc-build/orig/sdcc/src/pic14/gen.c:1400:mov2w
                      01354 ;;      1126 rIdx = r0x1057 
015A                  01355 _00152_DS_:
                      01356         .line   93; "PB_driver.c"       if(var2 == RELEASED_VOLTAGE){
015A   0??? 0???      01357         BANKSEL r0x101A
015C   08??           01358         MOVF    r0x101A,W
gpasm-1.5.0 #1285 (Sep 12 2016) obj\Debug\PB_   8-4-2020  19:47:27          PAGE 27


LOC    OBJECT CODE    LINE  SOURCE TEXT
  VALUE

                      01359 ;; >>> /home/sdcc-builder/build/sdcc-build/orig/sdcc/src/pic14/gen.c:3769:genCmpEq
015D   3A01           01360         XORLW   0x01
                      01361 ;; >>> /home/sdcc-builder/build/sdcc-build/orig/sdcc/src/pic14/gen.c:3771:genCmpEq
015E   1D03           01362         BTFSS   STATUS,2
                      01363 ;; >>> /home/sdcc-builder/build/sdcc-build/orig/sdcc/src/pic14/gen.c:3774:genCmpEq
                      01364 ;; ***  popGetLabel  key=25, label offset 34
015F   2???           01365         GOTO    _00159_DS_
                      01366 ;;; /home/sdcc-builder/build/sdcc-build/orig/sdcc/src/pic14/gen.c:2358:resultRemat *{*
                      01367 ;;; /home/sdcc-builder/build/sdcc-build/orig/sdcc/src/pic14/gen.c:2358:resultRemat *{*
                      01368 ;;; /home/sdcc-builder/build/sdcc-build/orig/sdcc/src/pic14/gen.c:6951:genPointerSet *{*
                      01369 ;; ***  genPointerSet  6952
                      01370 ;;; /home/sdcc-builder/build/sdcc-build/orig/sdcc/src/pic14/gen.c:6871:genNearPointerSet *{*
                      01371 ;; ***  genNearPointerSet  6872
                      01372 ;;      708 register type nRegs=2
                      01373 ;; ***  genNearPointerSet  6886
                      01374 ;;      line = 6888 result AOP_REG=r0x1051, size=2, left -=-, size=0, right AOP_LIT=0x00, size=1
                      01375 ;;; /home/sdcc-builder/build/sdcc-build/orig/sdcc/src/pic14/gen.c:1357:mov2w_op *{*
                      01376 ;; ***  mov2w  1395  offset=0
                      01377 ;; >>> /home/sdcc-builder/build/sdcc-build/orig/sdcc/src/pic14/gen.c:1400:mov2w
                      01378 ;;      1126 rIdx = r0x1051 
                      01379         .line   94; "PB_driver.c"       arr[button].state = released;
0160   08??           01380         MOVF    r0x1014,W
                      01381 ;; >>> /home/sdcc-builder/build/sdcc-build/orig/sdcc/src/pic14/gen.c:5851:setup_fsr
0161   1283 1303      01382         BANKSEL FSR
0163   0084           01383         MOVWF   FSR
                      01384 ;;; /home/sdcc-builder/build/sdcc-build/orig/sdcc/src/pic14/gen.c:5802:SetIrp *{*
                      01385 ;; >>> /home/sdcc-builder/build/sdcc-build/orig/sdcc/src/pic14/gen.c:5829:SetIrp
0164   1383           01386         BCF     STATUS,7
                      01387 ;; >>> /home/sdcc-builder/build/sdcc-build/orig/sdcc/src/pic14/gen.c:5832:SetIrp
0165   0??? 0???      01388         BANKSEL r0x1015
0167   18??           01389         BTFSC   r0x1015,0
                      01390 ;; >>> /home/sdcc-builder/build/sdcc-build/orig/sdcc/src/pic14/gen.c:5833:SetIrp
0168   1783           01391         BSF     STATUS,7
                      01392 ;; >>> /home/sdcc-builder/build/sdcc-build/orig/sdcc/src/pic14/gen.c:6636:emitPtrPut
0169   3000           01393         MOVLW   0x00
                      01394 ;; >>> /home/sdcc-builder/build/sdcc-build/orig/sdcc/src/pic14/gen.c:6639:emitPtrPut
016A   1283 1303      01395         BANKSEL INDF
016C   0080           01396         MOVWF   INDF
                      01397 ;; ***  genNearPointerSet  6905
                      01398 ;;; /home/sdcc-builder/build/sdcc-build/orig/sdcc/src/pic14/gen.c:2358:resultRemat *{*
                      01399 ;;; /home/sdcc-builder/build/sdcc-build/orig/sdcc/src/pic14/gen.c:2802:genLabel *{*
                      01400 ;; ***  genLabel  2805
                      01401 ;;; /home/sdcc-builder/build/sdcc-build/orig/sdcc/src/pic14/gen.c:2358:resultRemat *{*
                      01402 ;; ***  genPlus  707
                      01403 ;;; /home/sdcc-builder/build/sdcc-build/orig/sdcc/src/pic14/genarith.c:708:genPlus *{*
                      01404 ;;      708 register type nRegs=2
                      01405 ;;      589
                      01406 ;;      line = 714 result AOP_REG=r0x104D, size=2, left AOP_REG=r0x104D, size=2, right AOP_LIT=0x03, siz
                            e=1
                      01407 ;;; /home/sdcc-builder/build/sdcc-build/orig/sdcc/src/pic14/genarith.c:159:genPlusIncr *{*
                      01408 ;; ***  genPlusIncr  161
                      01409 ;;      result AOP_REG, left AOP_REG, right AOP_LIT
                      01410 ;;      genPlusIncr  173
gpasm-1.5.0 #1285 (Sep 12 2016) obj\Debug\PB_   8-4-2020  19:47:27          PAGE 28


LOC    OBJECT CODE    LINE  SOURCE TEXT
  VALUE

                      01411 ;;      adding lit to something. size 2
                      01412 ;;; /home/sdcc-builder/build/sdcc-build/orig/sdcc/src/pic14/genarith.c:286:genAddLit *{*
                      01413 ;; ***  genAddLit  287
                      01414 ;; hi = 0       genAddLit  351
                      01415 ;; >>> /home/sdcc-builder/build/sdcc-build/orig/sdcc/src/pic14/genarith.c:367:genAddLit
016D                  01416 _00159_DS_:
                      01417         .line   54; "PB_driver.c"       for(button=increment_button;button<=unused_button;button++){
016D   3003           01418         MOVLW   0x03
                      01419 ;; >>> /home/sdcc-builder/build/sdcc-build/orig/sdcc/src/pic14/genarith.c:368:genAddLit
                      01420 ;;      1126 rIdx = r0x104D 
016E   0??? 0???      01421         BANKSEL r0x1010
0170   07??           01422         ADDWF   r0x1010,F
                      01423 ;; >>> /home/sdcc-builder/build/sdcc-build/orig/sdcc/src/pic14/genarith.c:369:genAddLit
0171   1803           01424         BTFSC   STATUS,0
                      01425 ;; >>> /home/sdcc-builder/build/sdcc-build/orig/sdcc/src/pic14/genarith.c:370:genAddLit
                      01426 ;;      1126 rIdx = r0x104E 
0172   0A??           01427         INCF    r0x1011,F
                      01428 ;; ***  addSign  1087
                      01429 ;;; /home/sdcc-builder/build/sdcc-build/orig/sdcc/src/pic14/genarith.c:1088:addSign *{*
                      01430 ;;; /home/sdcc-builder/build/sdcc-build/orig/sdcc/src/pic14/gen.c:2358:resultRemat *{*
                      01431 ;; ***  genPlus  707
                      01432 ;;; /home/sdcc-builder/build/sdcc-build/orig/sdcc/src/pic14/genarith.c:708:genPlus *{*
                      01433 ;;      708 register type nRegs=2
                      01434 ;;      589
                      01435 ;;      line = 714 result AOP_REG=r0x104F, size=2, left AOP_REG=r0x104F, size=2, right AOP_LIT=0x03, siz
                            e=1
                      01436 ;;; /home/sdcc-builder/build/sdcc-build/orig/sdcc/src/pic14/genarith.c:159:genPlusIncr *{*
                      01437 ;; ***  genPlusIncr  161
                      01438 ;;      result AOP_REG, left AOP_REG, right AOP_LIT
                      01439 ;;      genPlusIncr  173
                      01440 ;;      adding lit to something. size 2
                      01441 ;;; /home/sdcc-builder/build/sdcc-build/orig/sdcc/src/pic14/genarith.c:286:genAddLit *{*
                      01442 ;; ***  genAddLit  287
                      01443 ;; hi = 0       genAddLit  351
                      01444 ;; >>> /home/sdcc-builder/build/sdcc-build/orig/sdcc/src/pic14/genarith.c:367:genAddLit
0173   3003           01445         MOVLW   0x03
                      01446 ;; >>> /home/sdcc-builder/build/sdcc-build/orig/sdcc/src/pic14/genarith.c:368:genAddLit
                      01447 ;;      1126 rIdx = r0x104F 
0174   07??           01448         ADDWF   r0x1012,F
                      01449 ;; >>> /home/sdcc-builder/build/sdcc-build/orig/sdcc/src/pic14/genarith.c:369:genAddLit
0175   1803           01450         BTFSC   STATUS,0
                      01451 ;; >>> /home/sdcc-builder/build/sdcc-build/orig/sdcc/src/pic14/genarith.c:370:genAddLit
                      01452 ;;      1126 rIdx = r0x1050 
0176   0A??           01453         INCF    r0x1013,F
                      01454 ;; ***  addSign  1087
                      01455 ;;; /home/sdcc-builder/build/sdcc-build/orig/sdcc/src/pic14/genarith.c:1088:addSign *{*
                      01456 ;;; /home/sdcc-builder/build/sdcc-build/orig/sdcc/src/pic14/gen.c:2358:resultRemat *{*
                      01457 ;; ***  genPlus  707
                      01458 ;;; /home/sdcc-builder/build/sdcc-build/orig/sdcc/src/pic14/genarith.c:708:genPlus *{*
                      01459 ;;      708 register type nRegs=1
                      01460 ;;      589
                      01461 ;;      line = 714 result AOP_REG=r0x104C, size=1, left AOP_REG=r0x104C, size=1, right AOP_LIT=0x01, siz
                            e=1
gpasm-1.5.0 #1285 (Sep 12 2016) obj\Debug\PB_   8-4-2020  19:47:27          PAGE 29


LOC    OBJECT CODE    LINE  SOURCE TEXT
  VALUE

                      01462 ;;; /home/sdcc-builder/build/sdcc-build/orig/sdcc/src/pic14/genarith.c:159:genPlusIncr *{*
                      01463 ;; ***  genPlusIncr  161
                      01464 ;;      result AOP_REG, left AOP_REG, right AOP_LIT
                      01465 ;;      genPlusIncr  173
                      01466 ;; >>> /home/sdcc-builder/build/sdcc-build/orig/sdcc/src/pic14/genarith.c:185:genPlusIncr
                      01467 ;;      1126 rIdx = r0x104C 
0177   0A??           01468         INCF    r0x100F,F
                      01469 ;;; /home/sdcc-builder/build/sdcc-build/orig/sdcc/src/pic14/gen.c:2358:resultRemat *{*
                      01470 ;;; /home/sdcc-builder/build/sdcc-build/orig/sdcc/src/pic14/gen.c:3616:genCmpGt *{*
                      01471 ;; ***  genCmpGt  3617
                      01472 ;;      708 register type nRegs=1
                      01473 ;;; /home/sdcc-builder/build/sdcc-build/orig/sdcc/src/pic14/gen.c:3354:genCmp *{*
                      01474 ;;swapping arguments (AOP_TYPEs 1/2)
                      01475 ;;unsigned compare: left >= lit(0x4=4), size=1
                      01476 ;; >>> /home/sdcc-builder/build/sdcc-build/orig/sdcc/src/pic14/gen.c:3325:pic14_mov2w_regOrLit
0178   3004           01477         MOVLW   0x04
                      01478 ;; >>> /home/sdcc-builder/build/sdcc-build/orig/sdcc/src/pic14/gen.c:3492:genCmp
                      01479 ;;      1126 rIdx = r0x104C 
0179   02??           01480         SUBWF   r0x100F,W
                      01481 ;;; /home/sdcc-builder/build/sdcc-build/orig/sdcc/src/pic14/gen.c:3297:genSkipc *{*
                      01482 ;; >>> /home/sdcc-builder/build/sdcc-build/orig/sdcc/src/pic14/gen.c:3304:genSkipc
017A   1C03           01483         BTFSS   STATUS,0
                      01484 ;; >>> /home/sdcc-builder/build/sdcc-build/orig/sdcc/src/pic14/gen.c:3306:genSkipc
                      01485 ;; ***  popGetLabel  key=24, label offset 34
017B   2???           01486         GOTO    _00158_DS_
                      01487 ;;genSkipc:3307: created from rifx:00000000047A5780
                      01488 ;;; /home/sdcc-builder/build/sdcc-build/orig/sdcc/src/pic14/gen.c:2358:resultRemat *{*
                      01489 ;;; /home/sdcc-builder/build/sdcc-build/orig/sdcc/src/pic14/gen.c:2358:resultRemat *{*
                      01490 ;;; /home/sdcc-builder/build/sdcc-build/orig/sdcc/src/pic14/gen.c:2802:genLabel *{*
                      01491 ;; ***  genLabel  2805
                      01492 ;;; /home/sdcc-builder/build/sdcc-build/orig/sdcc/src/pic14/gen.c:2358:resultRemat *{*
                      01493 ;;; /home/sdcc-builder/build/sdcc-build/orig/sdcc/src/pic14/gen.c:2570:genEndFunction *{*
                      01494 ;; ***  genEndFunction  2572
                      01495         .line   102; "PB_driver.c"      }
017C   0008           01496         RETURN  
                      01497 ; exit point of _PB_DRIVER_UPDATE
                      01498 ;;; /home/sdcc-builder/build/sdcc-build/orig/sdcc/src/pic14/gen.c:7710:genpic14Code *{*
                      01499 
                      01500 ;***
                      01501 ;  pBlock Stats: dbName = C
                      01502 ;***
                      01503 ;has an exit
                      01504 ;functions called:
                      01505 ;   _GPIO_INIT_PORT_PIN
                      01506 ;   _GPIO_INIT_PORT_PIN
                      01507 ;   _GPIO_INIT_PORT_PIN
                      01508 ;   _GPIO_INIT_PORT_PIN
                      01509 ;   __muluchar
                      01510 ;   _GPIO_INIT_PORT_PIN
                      01511 ;   _GPIO_INIT_PORT_PIN
                      01512 ;   _GPIO_INIT_PORT_PIN
                      01513 ;   _GPIO_INIT_PORT_PIN
                      01514 ;   __muluchar
gpasm-1.5.0 #1285 (Sep 12 2016) obj\Debug\PB_   8-4-2020  19:47:27          PAGE 30


LOC    OBJECT CODE    LINE  SOURCE TEXT
  VALUE

                      01515 ;8 compiler assigned registers:
                      01516 ;   r0x101B
                      01517 ;   STK00
                      01518 ;   r0x101C
                      01519 ;   STK01
                      01520 ;   r0x101D
                      01521 ;   r0x101E
                      01522 ;   r0x101F
                      01523 ;   r0x1020
                      01524 ;; Starting pCode block
                      01525 ;;; /home/sdcc-builder/build/sdcc-build/orig/sdcc/src/pic14/gen.c:2358:resultRemat *{*
                      01526 ;;; /home/sdcc-builder/build/sdcc-build/orig/sdcc/src/pic14/gen.c:2802:genLabel *{*
                      01527 ;; ***  genLabel  2805
                      01528 ;;; /home/sdcc-builder/build/sdcc-build/orig/sdcc/src/pic14/gen.c:2358:resultRemat *{*
                      01529 ;;; /home/sdcc-builder/build/sdcc-build/orig/sdcc/src/pic14/gen.c:2382:genFunction *{*
                      01530 ;; ***  genFunction  2384 curr label offset=0previous max_key=0 
                      01531 S_PB_driver__PB_DRIVER_INIT     code
0000                  01532 _PB_DRIVER_INIT:
                      01533 ; 2 exit points
                      01534 ;;; /home/sdcc-builder/build/sdcc-build/orig/sdcc/src/pic14/gen.c:2358:resultRemat *{*
                      01535 ;;; /home/sdcc-builder/build/sdcc-build/orig/sdcc/src/pic14/gen.c:7642:genReceive *{*
                      01536 ;; ***  genReceive  7643
                      01537 ;;      708 register type nRegs=1
                      01538 ;;; /home/sdcc-builder/build/sdcc-build/orig/sdcc/src/pic14/gen.c:1929:assignResultValue *{*
                      01539 ;; ***  assignResultValue  1931
                      01540 ;;      line = 1933 result -=-, size=0, left AOP_REG=r0x1045, size=1, right -=-, size=0
                      01541 ;; >>> /home/sdcc-builder/build/sdcc-build/orig/sdcc/src/pic14/gen.c:1407:movwf
                      01542 ;;      1126 rIdx = r0x1045 
                      01543         .line   15; "PB_driver.c"       void PB_DRIVER_INIT(button_name button,button_state state){
0000   0??? 0???      01544         BANKSEL r0x101B
0002   00??           01545         MOVWF   r0x101B
                      01546 ;;; /home/sdcc-builder/build/sdcc-build/orig/sdcc/src/pic14/gen.c:2358:resultRemat *{*
                      01547 ;;; /home/sdcc-builder/build/sdcc-build/orig/sdcc/src/pic14/gen.c:7642:genReceive *{*
                      01548 ;; ***  genReceive  7643
                      01549 ;;      708 register type nRegs=1
                      01550 ;;; /home/sdcc-builder/build/sdcc-build/orig/sdcc/src/pic14/gen.c:1929:assignResultValue *{*
                      01551 ;; ***  assignResultValue  1931
                      01552 ;;      line = 1933 result -=-, size=0, left AOP_REG=r0x1046, size=1, right -=-, size=0
                      01553 ;; >>> /home/sdcc-builder/build/sdcc-build/orig/sdcc/src/pic14/gen.c:1437:get_returnvalue
                      01554 ;; ***  popRegFromIdx,1059  , rIdx=0x7f
0003   08??           01555         MOVF    STK00,W
                      01556 ;; >>> /home/sdcc-builder/build/sdcc-build/orig/sdcc/src/pic14/gen.c:1407:movwf
                      01557 ;;      1126 rIdx = r0x1046 
0004   00??           01558         MOVWF   r0x101C
                      01559 ;;; /home/sdcc-builder/build/sdcc-build/orig/sdcc/src/pic14/gen.c:2358:resultRemat *{*
                      01560 ;;; /home/sdcc-builder/build/sdcc-build/orig/sdcc/src/pic14/gen.c:3616:genCmpGt *{*
                      01561 ;; ***  genCmpGt  3617
                      01562 ;;      708 register type nRegs=1
                      01563 ;;; /home/sdcc-builder/build/sdcc-build/orig/sdcc/src/pic14/gen.c:3354:genCmp *{*
                      01564 ;;swapping arguments (AOP_TYPEs 1/2)
                      01565 ;;unsigned compare: left >= lit(0x4=4), size=1
                      01566 ;; >>> /home/sdcc-builder/build/sdcc-build/orig/sdcc/src/pic14/gen.c:3325:pic14_mov2w_regOrLit
                      01567         .line   16; "PB_driver.c"       switch(button){
gpasm-1.5.0 #1285 (Sep 12 2016) obj\Debug\PB_   8-4-2020  19:47:27          PAGE 31


LOC    OBJECT CODE    LINE  SOURCE TEXT
  VALUE

0005   3004           01568         MOVLW   0x04
                      01569 ;; >>> /home/sdcc-builder/build/sdcc-build/orig/sdcc/src/pic14/gen.c:3492:genCmp
                      01570 ;;      1126 rIdx = r0x1045 
0006   02??           01571         SUBWF   r0x101B,W
                      01572 ;;; /home/sdcc-builder/build/sdcc-build/orig/sdcc/src/pic14/gen.c:3297:genSkipc *{*
                      01573 ;; >>> /home/sdcc-builder/build/sdcc-build/orig/sdcc/src/pic14/gen.c:3302:genSkipc
0007   1803           01574         BTFSC   STATUS,0
                      01575 ;; >>> /home/sdcc-builder/build/sdcc-build/orig/sdcc/src/pic14/gen.c:3306:genSkipc
                      01576 ;; ***  popGetLabel  key=6, label offset 4
0008   2???           01577         GOTO    _00110_DS_
                      01578 ;;genSkipc:3307: created from rifx:00000000047A5780
                      01579 ;;; /home/sdcc-builder/build/sdcc-build/orig/sdcc/src/pic14/gen.c:2358:resultRemat *{*
                      01580 ;;; /home/sdcc-builder/build/sdcc-build/orig/sdcc/src/pic14/gen.c:2358:resultRemat *{*
                      01581 ;;; /home/sdcc-builder/build/sdcc-build/orig/sdcc/src/pic14/gen.c:7337:genJumpTab *{*
                      01582 ;; ***  genJumpTab  7338
                      01583 ;;      708 register type nRegs=1
                      01584 ;; >>> /home/sdcc-builder/build/sdcc-build/orig/sdcc/src/pic14/gen.c:7353:genJumpTab
                      01585 ;; ***  popGetLabel  key=24, label offset 4
0009   30??           01586         MOVLW   HIGH(_00128_DS_)
                      01587 ;; >>> /home/sdcc-builder/build/sdcc-build/orig/sdcc/src/pic14/gen.c:7354:genJumpTab
000A   1283 1303      01588         BANKSEL PCLATH
000C   008A           01589         MOVWF   PCLATH
                      01590 ;; >>> /home/sdcc-builder/build/sdcc-build/orig/sdcc/src/pic14/gen.c:7355:genJumpTab
                      01591 ;; ***  popGetLabel  key=24, label offset 4
000D   30??           01592         MOVLW   _00128_DS_
                      01593 ;; >>> /home/sdcc-builder/build/sdcc-build/orig/sdcc/src/pic14/gen.c:7356:genJumpTab
                      01594 ;;      1126 rIdx = r0x1045 
000E   0??? 0???      01595         BANKSEL r0x101B
0010   07??           01596         ADDWF   r0x101B,W
                      01597 ;; >>> /home/sdcc-builder/build/sdcc-build/orig/sdcc/src/pic14/gen.c:7357:genJumpTab
0011   1C03           01598         BTFSS   STATUS,0
0012   2???           01599         GOTO    _00003_DS_
                      01600 ;; >>> /home/sdcc-builder/build/sdcc-build/orig/sdcc/src/pic14/gen.c:7358:genJumpTab
0013   1283 1303      01601         BANKSEL PCLATH
0015   0A8A           01602         INCF    PCLATH,F
                      01603 ;; >>> /home/sdcc-builder/build/sdcc-build/orig/sdcc/src/pic14/gen.c:7359:genJumpTab
0016                  01604 _00003_DS_:
0016   0082           01605         MOVWF   PCL
                      01606 ;; >>> /home/sdcc-builder/build/sdcc-build/orig/sdcc/src/pic14/gen.c:7368:genJumpTab
                      01607 ;; ***  popGetLabel  key=1, label offset 4
0017                  01608 _00128_DS_:
0017   2???           01609         GOTO    _00105_DS_
                      01610 ;; >>> /home/sdcc-builder/build/sdcc-build/orig/sdcc/src/pic14/gen.c:7368:genJumpTab
                      01611 ;; ***  popGetLabel  key=2, label offset 4
0018   2???           01612         GOTO    _00106_DS_
                      01613 ;; >>> /home/sdcc-builder/build/sdcc-build/orig/sdcc/src/pic14/gen.c:7368:genJumpTab
                      01614 ;; ***  popGetLabel  key=3, label offset 4
0019   2???           01615         GOTO    _00107_DS_
                      01616 ;; >>> /home/sdcc-builder/build/sdcc-build/orig/sdcc/src/pic14/gen.c:7368:genJumpTab
                      01617 ;; ***  popGetLabel  key=4, label offset 4
001A   2???           01618         GOTO    _00108_DS_
                      01619 ;;; /home/sdcc-builder/build/sdcc-build/orig/sdcc/src/pic14/gen.c:2358:resultRemat *{*
                      01620 ;;; /home/sdcc-builder/build/sdcc-build/orig/sdcc/src/pic14/gen.c:2802:genLabel *{*
gpasm-1.5.0 #1285 (Sep 12 2016) obj\Debug\PB_   8-4-2020  19:47:27          PAGE 32


LOC    OBJECT CODE    LINE  SOURCE TEXT
  VALUE

                      01621 ;; ***  genLabel  2805
                      01622 ;;; /home/sdcc-builder/build/sdcc-build/orig/sdcc/src/pic14/gen.c:2358:resultRemat *{*
                      01623 ;;; /home/sdcc-builder/build/sdcc-build/orig/sdcc/src/pic14/gen.c:2358:resultRemat *{*
                      01624 ;;; /home/sdcc-builder/build/sdcc-build/orig/sdcc/src/pic14/gen.c:2358:resultRemat *{*
                      01625 ;;; /home/sdcc-builder/build/sdcc-build/orig/sdcc/src/pic14/gen.c:2358:resultRemat *{*
                      01626 ;;; /home/sdcc-builder/build/sdcc-build/orig/sdcc/src/pic14/gen.c:2108:genCall *{*
                      01627 ;; ***  genCall  2110
                      01628 ;;      2158 left AOP_LIT
                      01629 ;;; /home/sdcc-builder/build/sdcc-build/orig/sdcc/src/pic14/gen.c:1357:mov2w_op *{*
                      01630 ;; >>> /home/sdcc-builder/build/sdcc-build/orig/sdcc/src/pic14/gen.c:1375:mov2w_op
001B                  01631 _00105_DS_:
                      01632         .line   18; "PB_driver.c"       GPIO_INIT_PORT_PIN(PORT_B,0,GPIO_IN);
001B   3001           01633         MOVLW   0x01
                      01634 ;;      2158 left AOP_LIT
                      01635 ;; >>> /home/sdcc-builder/build/sdcc-build/orig/sdcc/src/pic14/gen.c:2166:genCall
                      01636 ;; ***  popRegFromIdx,1059  , rIdx=0x7e
001C   00??           01637         MOVWF   STK01
                      01638 ;;; /home/sdcc-builder/build/sdcc-build/orig/sdcc/src/pic14/gen.c:1357:mov2w_op *{*
                      01639 ;; >>> /home/sdcc-builder/build/sdcc-build/orig/sdcc/src/pic14/gen.c:1375:mov2w_op
001D   3000           01640         MOVLW   0x00
                      01641 ;;      2158 left AOP_LIT
                      01642 ;; >>> /home/sdcc-builder/build/sdcc-build/orig/sdcc/src/pic14/gen.c:2166:genCall
                      01643 ;; ***  popRegFromIdx,1059  , rIdx=0x7f
001E   00??           01644         MOVWF   STK00
                      01645 ;;; /home/sdcc-builder/build/sdcc-build/orig/sdcc/src/pic14/gen.c:1357:mov2w_op *{*
                      01646 ;; >>> /home/sdcc-builder/build/sdcc-build/orig/sdcc/src/pic14/gen.c:1375:mov2w_op
001F   3001           01647         MOVLW   0x01
                      01648 ;; >>> /home/sdcc-builder/build/sdcc-build/orig/sdcc/src/pic14/gen.c:2207:genCall
0020   0??? 0???      01649         PAGESEL _GPIO_INIT_PORT_PIN
                      01650 ;; >>> /home/sdcc-builder/build/sdcc-build/orig/sdcc/src/pic14/gen.c:2215:genCall
0022   2???           01651         CALL    _GPIO_INIT_PORT_PIN
                      01652 ;; >>> /home/sdcc-builder/build/sdcc-build/orig/sdcc/src/pic14/gen.c:2223:genCall
0023   0??? 0???      01653         PAGESEL $
                      01654 ;;; /home/sdcc-builder/build/sdcc-build/orig/sdcc/src/pic14/gen.c:2358:resultRemat *{*
                      01655 ;;; /home/sdcc-builder/build/sdcc-build/orig/sdcc/src/pic14/gen.c:2820:genGoto *{*
                      01656 ;; >>> /home/sdcc-builder/build/sdcc-build/orig/sdcc/src/pic14/gen.c:2822:genGoto
                      01657 ;; ***  popGetLabel  key=6, label offset 4
                      01658         .line   19; "PB_driver.c"       break;
0025   2???           01659         GOTO    _00110_DS_
                      01660 ;;; /home/sdcc-builder/build/sdcc-build/orig/sdcc/src/pic14/gen.c:2358:resultRemat *{*
                      01661 ;;; /home/sdcc-builder/build/sdcc-build/orig/sdcc/src/pic14/gen.c:2802:genLabel *{*
                      01662 ;; ***  genLabel  2805
                      01663 ;;; /home/sdcc-builder/build/sdcc-build/orig/sdcc/src/pic14/gen.c:2358:resultRemat *{*
                      01664 ;;; /home/sdcc-builder/build/sdcc-build/orig/sdcc/src/pic14/gen.c:2358:resultRemat *{*
                      01665 ;;; /home/sdcc-builder/build/sdcc-build/orig/sdcc/src/pic14/gen.c:2358:resultRemat *{*
                      01666 ;;; /home/sdcc-builder/build/sdcc-build/orig/sdcc/src/pic14/gen.c:2358:resultRemat *{*
                      01667 ;;; /home/sdcc-builder/build/sdcc-build/orig/sdcc/src/pic14/gen.c:2108:genCall *{*
                      01668 ;; ***  genCall  2110
                      01669 ;;      2158 left AOP_LIT
                      01670 ;;; /home/sdcc-builder/build/sdcc-build/orig/sdcc/src/pic14/gen.c:1357:mov2w_op *{*
                      01671 ;; >>> /home/sdcc-builder/build/sdcc-build/orig/sdcc/src/pic14/gen.c:1375:mov2w_op
0026                  01672 _00106_DS_:
                      01673         .line   21; "PB_driver.c"       GPIO_INIT_PORT_PIN(PORT_B,1,GPIO_IN);
gpasm-1.5.0 #1285 (Sep 12 2016) obj\Debug\PB_   8-4-2020  19:47:27          PAGE 33


LOC    OBJECT CODE    LINE  SOURCE TEXT
  VALUE

0026   3001           01674         MOVLW   0x01
                      01675 ;;      2158 left AOP_LIT
                      01676 ;; >>> /home/sdcc-builder/build/sdcc-build/orig/sdcc/src/pic14/gen.c:2166:genCall
                      01677 ;; ***  popRegFromIdx,1059  , rIdx=0x7e
0027   00??           01678         MOVWF   STK01
                      01679 ;;; /home/sdcc-builder/build/sdcc-build/orig/sdcc/src/pic14/gen.c:1357:mov2w_op *{*
                      01680 ;; >>> /home/sdcc-builder/build/sdcc-build/orig/sdcc/src/pic14/gen.c:1375:mov2w_op
0028   3001           01681         MOVLW   0x01
                      01682 ;;      2158 left AOP_LIT
                      01683 ;; >>> /home/sdcc-builder/build/sdcc-build/orig/sdcc/src/pic14/gen.c:2166:genCall
                      01684 ;; ***  popRegFromIdx,1059  , rIdx=0x7f
0029   00??           01685         MOVWF   STK00
                      01686 ;;; /home/sdcc-builder/build/sdcc-build/orig/sdcc/src/pic14/gen.c:1357:mov2w_op *{*
                      01687 ;; >>> /home/sdcc-builder/build/sdcc-build/orig/sdcc/src/pic14/gen.c:1375:mov2w_op
002A   3001           01688         MOVLW   0x01
                      01689 ;; >>> /home/sdcc-builder/build/sdcc-build/orig/sdcc/src/pic14/gen.c:2207:genCall
002B   0??? 0???      01690         PAGESEL _GPIO_INIT_PORT_PIN
                      01691 ;; >>> /home/sdcc-builder/build/sdcc-build/orig/sdcc/src/pic14/gen.c:2215:genCall
002D   2???           01692         CALL    _GPIO_INIT_PORT_PIN
                      01693 ;; >>> /home/sdcc-builder/build/sdcc-build/orig/sdcc/src/pic14/gen.c:2223:genCall
002E   0??? 0???      01694         PAGESEL $
                      01695 ;;; /home/sdcc-builder/build/sdcc-build/orig/sdcc/src/pic14/gen.c:2358:resultRemat *{*
                      01696 ;;; /home/sdcc-builder/build/sdcc-build/orig/sdcc/src/pic14/gen.c:2820:genGoto *{*
                      01697 ;; >>> /home/sdcc-builder/build/sdcc-build/orig/sdcc/src/pic14/gen.c:2822:genGoto
                      01698 ;; ***  popGetLabel  key=6, label offset 4
                      01699         .line   22; "PB_driver.c"       break;
0030   2???           01700         GOTO    _00110_DS_
                      01701 ;;; /home/sdcc-builder/build/sdcc-build/orig/sdcc/src/pic14/gen.c:2358:resultRemat *{*
                      01702 ;;; /home/sdcc-builder/build/sdcc-build/orig/sdcc/src/pic14/gen.c:2802:genLabel *{*
                      01703 ;; ***  genLabel  2805
                      01704 ;;; /home/sdcc-builder/build/sdcc-build/orig/sdcc/src/pic14/gen.c:2358:resultRemat *{*
                      01705 ;;; /home/sdcc-builder/build/sdcc-build/orig/sdcc/src/pic14/gen.c:2358:resultRemat *{*
                      01706 ;;; /home/sdcc-builder/build/sdcc-build/orig/sdcc/src/pic14/gen.c:2358:resultRemat *{*
                      01707 ;;; /home/sdcc-builder/build/sdcc-build/orig/sdcc/src/pic14/gen.c:2358:resultRemat *{*
                      01708 ;;; /home/sdcc-builder/build/sdcc-build/orig/sdcc/src/pic14/gen.c:2108:genCall *{*
                      01709 ;; ***  genCall  2110
                      01710 ;;      2158 left AOP_LIT
                      01711 ;;; /home/sdcc-builder/build/sdcc-build/orig/sdcc/src/pic14/gen.c:1357:mov2w_op *{*
                      01712 ;; >>> /home/sdcc-builder/build/sdcc-build/orig/sdcc/src/pic14/gen.c:1375:mov2w_op
0031                  01713 _00107_DS_:
                      01714         .line   24; "PB_driver.c"       GPIO_INIT_PORT_PIN(PORT_B,2,GPIO_IN);
0031   3001           01715         MOVLW   0x01
                      01716 ;;      2158 left AOP_LIT
                      01717 ;; >>> /home/sdcc-builder/build/sdcc-build/orig/sdcc/src/pic14/gen.c:2166:genCall
                      01718 ;; ***  popRegFromIdx,1059  , rIdx=0x7e
0032   00??           01719         MOVWF   STK01
                      01720 ;;; /home/sdcc-builder/build/sdcc-build/orig/sdcc/src/pic14/gen.c:1357:mov2w_op *{*
                      01721 ;; >>> /home/sdcc-builder/build/sdcc-build/orig/sdcc/src/pic14/gen.c:1375:mov2w_op
0033   3002           01722         MOVLW   0x02
                      01723 ;;      2158 left AOP_LIT
                      01724 ;; >>> /home/sdcc-builder/build/sdcc-build/orig/sdcc/src/pic14/gen.c:2166:genCall
                      01725 ;; ***  popRegFromIdx,1059  , rIdx=0x7f
0034   00??           01726         MOVWF   STK00
gpasm-1.5.0 #1285 (Sep 12 2016) obj\Debug\PB_   8-4-2020  19:47:27          PAGE 34


LOC    OBJECT CODE    LINE  SOURCE TEXT
  VALUE

                      01727 ;;; /home/sdcc-builder/build/sdcc-build/orig/sdcc/src/pic14/gen.c:1357:mov2w_op *{*
                      01728 ;; >>> /home/sdcc-builder/build/sdcc-build/orig/sdcc/src/pic14/gen.c:1375:mov2w_op
0035   3001           01729         MOVLW   0x01
                      01730 ;; >>> /home/sdcc-builder/build/sdcc-build/orig/sdcc/src/pic14/gen.c:2207:genCall
0036   0??? 0???      01731         PAGESEL _GPIO_INIT_PORT_PIN
                      01732 ;; >>> /home/sdcc-builder/build/sdcc-build/orig/sdcc/src/pic14/gen.c:2215:genCall
0038   2???           01733         CALL    _GPIO_INIT_PORT_PIN
                      01734 ;; >>> /home/sdcc-builder/build/sdcc-build/orig/sdcc/src/pic14/gen.c:2223:genCall
0039   0??? 0???      01735         PAGESEL $
                      01736 ;;; /home/sdcc-builder/build/sdcc-build/orig/sdcc/src/pic14/gen.c:2358:resultRemat *{*
                      01737 ;;; /home/sdcc-builder/build/sdcc-build/orig/sdcc/src/pic14/gen.c:2820:genGoto *{*
                      01738 ;; >>> /home/sdcc-builder/build/sdcc-build/orig/sdcc/src/pic14/gen.c:2822:genGoto
                      01739 ;; ***  popGetLabel  key=6, label offset 4
                      01740         .line   25; "PB_driver.c"       break;
003B   2???           01741         GOTO    _00110_DS_
                      01742 ;;; /home/sdcc-builder/build/sdcc-build/orig/sdcc/src/pic14/gen.c:2358:resultRemat *{*
                      01743 ;;; /home/sdcc-builder/build/sdcc-build/orig/sdcc/src/pic14/gen.c:2802:genLabel *{*
                      01744 ;; ***  genLabel  2805
                      01745 ;;; /home/sdcc-builder/build/sdcc-build/orig/sdcc/src/pic14/gen.c:2358:resultRemat *{*
                      01746 ;;; /home/sdcc-builder/build/sdcc-build/orig/sdcc/src/pic14/gen.c:2358:resultRemat *{*
                      01747 ;;; /home/sdcc-builder/build/sdcc-build/orig/sdcc/src/pic14/gen.c:2358:resultRemat *{*
                      01748 ;;; /home/sdcc-builder/build/sdcc-build/orig/sdcc/src/pic14/gen.c:2358:resultRemat *{*
                      01749 ;;; /home/sdcc-builder/build/sdcc-build/orig/sdcc/src/pic14/gen.c:2108:genCall *{*
                      01750 ;; ***  genCall  2110
                      01751 ;;      2158 left AOP_LIT
                      01752 ;;; /home/sdcc-builder/build/sdcc-build/orig/sdcc/src/pic14/gen.c:1357:mov2w_op *{*
                      01753 ;; >>> /home/sdcc-builder/build/sdcc-build/orig/sdcc/src/pic14/gen.c:1375:mov2w_op
003C                  01754 _00108_DS_:
                      01755         .line   27; "PB_driver.c"       GPIO_INIT_PORT_PIN(PORT_B,3,GPIO_IN);
003C   3001           01756         MOVLW   0x01
                      01757 ;;      2158 left AOP_LIT
                      01758 ;; >>> /home/sdcc-builder/build/sdcc-build/orig/sdcc/src/pic14/gen.c:2166:genCall
                      01759 ;; ***  popRegFromIdx,1059  , rIdx=0x7e
003D   00??           01760         MOVWF   STK01
                      01761 ;;; /home/sdcc-builder/build/sdcc-build/orig/sdcc/src/pic14/gen.c:1357:mov2w_op *{*
                      01762 ;; >>> /home/sdcc-builder/build/sdcc-build/orig/sdcc/src/pic14/gen.c:1375:mov2w_op
003E   3003           01763         MOVLW   0x03
                      01764 ;;      2158 left AOP_LIT
                      01765 ;; >>> /home/sdcc-builder/build/sdcc-build/orig/sdcc/src/pic14/gen.c:2166:genCall
                      01766 ;; ***  popRegFromIdx,1059  , rIdx=0x7f
003F   00??           01767         MOVWF   STK00
                      01768 ;;; /home/sdcc-builder/build/sdcc-build/orig/sdcc/src/pic14/gen.c:1357:mov2w_op *{*
                      01769 ;; >>> /home/sdcc-builder/build/sdcc-build/orig/sdcc/src/pic14/gen.c:1375:mov2w_op
0040   3001           01770         MOVLW   0x01
                      01771 ;; >>> /home/sdcc-builder/build/sdcc-build/orig/sdcc/src/pic14/gen.c:2207:genCall
0041   0??? 0???      01772         PAGESEL _GPIO_INIT_PORT_PIN
                      01773 ;; >>> /home/sdcc-builder/build/sdcc-build/orig/sdcc/src/pic14/gen.c:2215:genCall
0043   2???           01774         CALL    _GPIO_INIT_PORT_PIN
                      01775 ;; >>> /home/sdcc-builder/build/sdcc-build/orig/sdcc/src/pic14/gen.c:2223:genCall
0044   0??? 0???      01776         PAGESEL $
                      01777 ;;; /home/sdcc-builder/build/sdcc-build/orig/sdcc/src/pic14/gen.c:2358:resultRemat *{*
                      01778 ;;; /home/sdcc-builder/build/sdcc-build/orig/sdcc/src/pic14/gen.c:2802:genLabel *{*
                      01779 ;; ***  genLabel  2805
gpasm-1.5.0 #1285 (Sep 12 2016) obj\Debug\PB_   8-4-2020  19:47:27          PAGE 35


LOC    OBJECT CODE    LINE  SOURCE TEXT
  VALUE

                      01780 ;;; /home/sdcc-builder/build/sdcc-build/orig/sdcc/src/pic14/gen.c:2358:resultRemat *{*
                      01781 ;;; /home/sdcc-builder/build/sdcc-build/orig/sdcc/src/pic14/gen.c:2358:resultRemat *{*
                      01782 ;;; /home/sdcc-builder/build/sdcc-build/orig/sdcc/src/pic14/gen.c:2358:resultRemat *{*
                      01783 ;;; /home/sdcc-builder/build/sdcc-build/orig/sdcc/src/pic14/gen.c:2358:resultRemat *{*
                      01784 ;;; /home/sdcc-builder/build/sdcc-build/orig/sdcc/src/pic14/gen.c:2108:genCall *{*
                      01785 ;; ***  genCall  2110
                      01786 ;;      708 register type nRegs=1
                      01787 ;;      2158 left AOP_LIT
                      01788 ;;; /home/sdcc-builder/build/sdcc-build/orig/sdcc/src/pic14/gen.c:1357:mov2w_op *{*
                      01789 ;; >>> /home/sdcc-builder/build/sdcc-build/orig/sdcc/src/pic14/gen.c:1375:mov2w_op
0046                  01790 _00110_DS_:
                      01791         .line   33; "PB_driver.c"       arr[button].state = state;
0046   3003           01792         MOVLW   0x03
                      01793 ;;      708 register type nRegs=1
                      01794 ;;      2158 left AOP_REG
                      01795 ;; >>> /home/sdcc-builder/build/sdcc-build/orig/sdcc/src/pic14/gen.c:2166:genCall
                      01796 ;; ***  popRegFromIdx,1059  , rIdx=0x7f
0047   00??           01797         MOVWF   STK00
                      01798 ;;; /home/sdcc-builder/build/sdcc-build/orig/sdcc/src/pic14/gen.c:1357:mov2w_op *{*
                      01799 ;; ***  mov2w  1395  offset=0
                      01800 ;; >>> /home/sdcc-builder/build/sdcc-build/orig/sdcc/src/pic14/gen.c:1400:mov2w
                      01801 ;;      1126 rIdx = r0x1045 
0048   0??? 0???      01802         BANKSEL r0x101B
004A   08??           01803         MOVF    r0x101B,W
                      01804 ;; >>> /home/sdcc-builder/build/sdcc-build/orig/sdcc/src/pic14/gen.c:2207:genCall
004B   0??? 0???      01805         PAGESEL __muluchar
                      01806 ;; >>> /home/sdcc-builder/build/sdcc-build/orig/sdcc/src/pic14/gen.c:2215:genCall
004D   2???           01807         CALL    __muluchar
                      01808 ;; >>> /home/sdcc-builder/build/sdcc-build/orig/sdcc/src/pic14/gen.c:2223:genCall
004E   0??? 0???      01809         PAGESEL $
                      01810 ;;      708 register type nRegs=2
                      01811 ;;; /home/sdcc-builder/build/sdcc-build/orig/sdcc/src/pic14/gen.c:1929:assignResultValue *{*
                      01812 ;; ***  assignResultValue  1931
                      01813 ;;      line = 1933 result -=-, size=0, left AOP_REG=r0x1045, size=2, right -=-, size=0
                      01814 ;; >>> /home/sdcc-builder/build/sdcc-build/orig/sdcc/src/pic14/gen.c:1407:movwf
                      01815 ;;      1126 rIdx = r0x1047 
0050   0??? 0???      01816         BANKSEL r0x101D
0052   00??           01817         MOVWF   r0x101D
                      01818 ;; >>> /home/sdcc-builder/build/sdcc-build/orig/sdcc/src/pic14/gen.c:1437:get_returnvalue
                      01819 ;; ***  popRegFromIdx,1059  , rIdx=0x7f
0053   08??           01820         MOVF    STK00,W
                      01821 ;; >>> /home/sdcc-builder/build/sdcc-build/orig/sdcc/src/pic14/gen.c:1407:movwf
                      01822 ;;      1126 rIdx = r0x1045 
0054   00??           01823         MOVWF   r0x101B
0055   3E??           01824         ADDLW   (_arr + 0)
                      01825 ;; >>> /home/sdcc-builder/build/sdcc-build/orig/sdcc/src/pic14/genarith.c:833:genPlus
                      01826 ;;      1126 rIdx = r0x1048 
0056   00??           01827         MOVWF   r0x101E
                      01828 ;; >>> /home/sdcc-builder/build/sdcc-build/orig/sdcc/src/pic14/genarith.c:880:genPlus
0057   30??           01829         MOVLW   high (_arr + 0)
                      01830 ;; >>> /home/sdcc-builder/build/sdcc-build/orig/sdcc/src/pic14/genarith.c:881:genPlus
                      01831 ;;      1126 rIdx = r0x1049 
0058   00??           01832         MOVWF   r0x101F
gpasm-1.5.0 #1285 (Sep 12 2016) obj\Debug\PB_   8-4-2020  19:47:27          PAGE 36


LOC    OBJECT CODE    LINE  SOURCE TEXT
  VALUE

                      01833 ;; >>> /home/sdcc-builder/build/sdcc-build/orig/sdcc/src/pic14/genarith.c:883:genPlus
                      01834 ;;      1126 rIdx = r0x1047 
0059   08??           01835         MOVF    r0x101D,W
                      01836 ;; >>> /home/sdcc-builder/build/sdcc-build/orig/sdcc/src/pic14/genarith.c:884:genPlus
005A   1803           01837         BTFSC   STATUS,0
                      01838 ;; >>> /home/sdcc-builder/build/sdcc-build/orig/sdcc/src/pic14/genarith.c:885:genPlus
                      01839 ;;      1126 rIdx = r0x1047 
005B   0F??           01840         INCFSZ  r0x101D,W
                      01841 ;; >>> /home/sdcc-builder/build/sdcc-build/orig/sdcc/src/pic14/genarith.c:886:genPlus
                      01842 ;;      1126 rIdx = r0x1049 
005C   07??           01843         ADDWF   r0x101F,F
                      01844 ;;; /home/sdcc-builder/build/sdcc-build/orig/sdcc/src/pic14/gen.c:2358:resultRemat *{*
                      01845 ;;; /home/sdcc-builder/build/sdcc-build/orig/sdcc/src/pic14/gen.c:6951:genPointerSet *{*
                      01846 ;; ***  genPointerSet  6952
                      01847 ;;; /home/sdcc-builder/build/sdcc-build/orig/sdcc/src/pic14/gen.c:6871:genNearPointerSet *{*
                      01848 ;; ***  genNearPointerSet  6872
                      01849 ;;      708 register type nRegs=2
                      01850 ;; ***  genNearPointerSet  6886
                      01851 ;;      708 register type nRegs=1
                      01852 ;;      line = 6888 result AOP_REG=r0x1048, size=2, left -=-, size=0, right AOP_REG=r0x1046, size=1
                      01853 ;;; /home/sdcc-builder/build/sdcc-build/orig/sdcc/src/pic14/gen.c:1357:mov2w_op *{*
                      01854 ;; ***  mov2w  1395  offset=0
                      01855 ;; >>> /home/sdcc-builder/build/sdcc-build/orig/sdcc/src/pic14/gen.c:1400:mov2w
                      01856 ;;      1126 rIdx = r0x1048 
005D   08??           01857         MOVF    r0x101E,W
                      01858 ;; >>> /home/sdcc-builder/build/sdcc-build/orig/sdcc/src/pic14/gen.c:5851:setup_fsr
005E   1283 1303      01859         BANKSEL FSR
0060   0084           01860         MOVWF   FSR
                      01861 ;;; /home/sdcc-builder/build/sdcc-build/orig/sdcc/src/pic14/gen.c:5802:SetIrp *{*
                      01862 ;; >>> /home/sdcc-builder/build/sdcc-build/orig/sdcc/src/pic14/gen.c:5829:SetIrp
0061   1383           01863         BCF     STATUS,7
                      01864 ;; >>> /home/sdcc-builder/build/sdcc-build/orig/sdcc/src/pic14/gen.c:5832:SetIrp
0062   0??? 0???      01865         BANKSEL r0x101F
0064   18??           01866         BTFSC   r0x101F,0
                      01867 ;; >>> /home/sdcc-builder/build/sdcc-build/orig/sdcc/src/pic14/gen.c:5833:SetIrp
0065   1783           01868         BSF     STATUS,7
                      01869 ;; >>> /home/sdcc-builder/build/sdcc-build/orig/sdcc/src/pic14/gen.c:6638:emitPtrPut
                      01870 ;;      1126 rIdx = r0x1046 
0066   08??           01871         MOVF    r0x101C,W
                      01872 ;; >>> /home/sdcc-builder/build/sdcc-build/orig/sdcc/src/pic14/gen.c:6639:emitPtrPut
0067   1283 1303      01873         BANKSEL INDF
0069   0080           01874         MOVWF   INDF
                      01875 ;; ***  genNearPointerSet  6905
                      01876 ;;; /home/sdcc-builder/build/sdcc-build/orig/sdcc/src/pic14/gen.c:2358:resultRemat *{*
                      01877 ;;; /home/sdcc-builder/build/sdcc-build/orig/sdcc/src/pic14/gen.c:3616:genCmpGt *{*
                      01878 ;; ***  genCmpGt  3617
                      01879 ;;      708 register type nRegs=1
                      01880 ;;; /home/sdcc-builder/build/sdcc-build/orig/sdcc/src/pic14/gen.c:3354:genCmp *{*
                      01881 ;;swapping arguments (AOP_TYPEs 1/2)
                      01882 ;;unsigned compare: left >= lit(0x4=4), size=1
                      01883 ;; >>> /home/sdcc-builder/build/sdcc-build/orig/sdcc/src/pic14/gen.c:3325:pic14_mov2w_regOrLit
                      01884         .line   34; "PB_driver.c"       switch(state){
006A   3004           01885         MOVLW   0x04
gpasm-1.5.0 #1285 (Sep 12 2016) obj\Debug\PB_   8-4-2020  19:47:27          PAGE 37


LOC    OBJECT CODE    LINE  SOURCE TEXT
  VALUE

                      01886 ;; >>> /home/sdcc-builder/build/sdcc-build/orig/sdcc/src/pic14/gen.c:3492:genCmp
                      01887 ;;      1126 rIdx = r0x1046 
006B   0??? 0???      01888         BANKSEL r0x101C
006D   02??           01889         SUBWF   r0x101C,W
                      01890 ;;; /home/sdcc-builder/build/sdcc-build/orig/sdcc/src/pic14/gen.c:3297:genSkipc *{*
                      01891 ;; >>> /home/sdcc-builder/build/sdcc-build/orig/sdcc/src/pic14/gen.c:3302:genSkipc
006E   1803           01892         BTFSC   STATUS,0
                      01893 ;; >>> /home/sdcc-builder/build/sdcc-build/orig/sdcc/src/pic14/gen.c:3306:genSkipc
                      01894 ;; ***  popGetLabel  key=12, label offset 4
006F   2???           01895         GOTO    _00116_DS_
                      01896 ;;genSkipc:3307: created from rifx:00000000047A5780
                      01897 ;;; /home/sdcc-builder/build/sdcc-build/orig/sdcc/src/pic14/gen.c:2358:resultRemat *{*
                      01898 ;;; /home/sdcc-builder/build/sdcc-build/orig/sdcc/src/pic14/gen.c:2358:resultRemat *{*
                      01899 ;;; /home/sdcc-builder/build/sdcc-build/orig/sdcc/src/pic14/gen.c:7337:genJumpTab *{*
                      01900 ;; ***  genJumpTab  7338
                      01901 ;;      708 register type nRegs=1
                      01902 ;; >>> /home/sdcc-builder/build/sdcc-build/orig/sdcc/src/pic14/gen.c:7353:genJumpTab
                      01903 ;; ***  popGetLabel  key=26, label offset 4
0070   30??           01904         MOVLW   HIGH(_00130_DS_)
                      01905 ;; >>> /home/sdcc-builder/build/sdcc-build/orig/sdcc/src/pic14/gen.c:7354:genJumpTab
0071   1283 1303      01906         BANKSEL PCLATH
0073   008A           01907         MOVWF   PCLATH
                      01908 ;; >>> /home/sdcc-builder/build/sdcc-build/orig/sdcc/src/pic14/gen.c:7355:genJumpTab
                      01909 ;; ***  popGetLabel  key=26, label offset 4
0074   30??           01910         MOVLW   _00130_DS_
                      01911 ;; >>> /home/sdcc-builder/build/sdcc-build/orig/sdcc/src/pic14/gen.c:7356:genJumpTab
                      01912 ;;      1126 rIdx = r0x1046 
0075   0??? 0???      01913         BANKSEL r0x101C
0077   07??           01914         ADDWF   r0x101C,W
                      01915 ;; >>> /home/sdcc-builder/build/sdcc-build/orig/sdcc/src/pic14/gen.c:7357:genJumpTab
0078   1C03           01916         BTFSS   STATUS,0
0079   2???           01917         GOTO    _00004_DS_
                      01918 ;; >>> /home/sdcc-builder/build/sdcc-build/orig/sdcc/src/pic14/gen.c:7358:genJumpTab
007A   1283 1303      01919         BANKSEL PCLATH
007C   0A8A           01920         INCF    PCLATH,F
                      01921 ;; >>> /home/sdcc-builder/build/sdcc-build/orig/sdcc/src/pic14/gen.c:7359:genJumpTab
007D                  01922 _00004_DS_:
007D   0082           01923         MOVWF   PCL
                      01924 ;; >>> /home/sdcc-builder/build/sdcc-build/orig/sdcc/src/pic14/gen.c:7368:genJumpTab
                      01925 ;; ***  popGetLabel  key=12, label offset 4
007E                  01926 _00130_DS_:
007E   2???           01927         GOTO    _00116_DS_
                      01928 ;; >>> /home/sdcc-builder/build/sdcc-build/orig/sdcc/src/pic14/gen.c:7368:genJumpTab
                      01929 ;; ***  popGetLabel  key=10, label offset 4
007F   2???           01930         GOTO    _00114_DS_
                      01931 ;; >>> /home/sdcc-builder/build/sdcc-build/orig/sdcc/src/pic14/gen.c:7368:genJumpTab
                      01932 ;; ***  popGetLabel  key=12, label offset 4
0080   2???           01933         GOTO    _00116_DS_
                      01934 ;; >>> /home/sdcc-builder/build/sdcc-build/orig/sdcc/src/pic14/gen.c:7368:genJumpTab
                      01935 ;; ***  popGetLabel  key=8, label offset 4
0081   2???           01936         GOTO    _00112_DS_
                      01937 ;;; /home/sdcc-builder/build/sdcc-build/orig/sdcc/src/pic14/gen.c:2358:resultRemat *{*
                      01938 ;;; /home/sdcc-builder/build/sdcc-build/orig/sdcc/src/pic14/gen.c:2802:genLabel *{*
gpasm-1.5.0 #1285 (Sep 12 2016) obj\Debug\PB_   8-4-2020  19:47:27          PAGE 38


LOC    OBJECT CODE    LINE  SOURCE TEXT
  VALUE

                      01939 ;; ***  genLabel  2805
                      01940 ;;; /home/sdcc-builder/build/sdcc-build/orig/sdcc/src/pic14/gen.c:2358:resultRemat *{*
                      01941 ;; ***  genPlus  707
                      01942 ;;; /home/sdcc-builder/build/sdcc-build/orig/sdcc/src/pic14/genarith.c:708:genPlus *{*
                      01943 ;;      627
                      01944 ;;      aopForRemat 406
                      01945 ;;      432: rname _arr, val 0, const = 0
                      01946 ;;      708 register type nRegs=2
                      01947 ;;      708 register type nRegs=2
                      01948 ;;      837: aopGet AOP_PCODE type PO_IMMEDIATE
                      01949 ;;      _arr
                      01950 ;;      line = 714 result AOP_REG=r0x1046, size=2, left AOP_PCODE=_arr, size=2, right AOP_REG=r0x1045, s
                            ize=2
                      01951 ;;; /home/sdcc-builder/build/sdcc-build/orig/sdcc/src/pic14/genarith.c:159:genPlusIncr *{*
                      01952 ;; ***  genPlusIncr  161
                      01953 ;;      result AOP_REG, left AOP_PCODE, right AOP_REG
                      01954 ;; ***  genPlus  814
                      01955 ;;      837: aopGet AOP_PCODE type PO_IMMEDIATE
                      01956 ;;      _arr
                      01957 ;; >>> /home/sdcc-builder/build/sdcc-build/orig/sdcc/src/pic14/genarith.c:823:genPlus
                      01958 ;;      1126 rIdx = r0x1045 
0082                  01959 _00112_DS_:
                      01960         .line   38; "PB_driver.c"       arr[button].samples[0] = RELEASED_VOLTAGE;
0082   0??? 0???      01961         BANKSEL r0x101B
0084   08??           01962         MOVF    r0x101B,W
                      01963 ;; >>> /home/sdcc-builder/build/sdcc-build/orig/sdcc/src/pic14/genarith.c:832:genPlus
0085   3E??           01964         ADDLW   (_arr + 0)
                      01965 ;; >>> /home/sdcc-builder/build/sdcc-build/orig/sdcc/src/pic14/genarith.c:833:genPlus
                      01966 ;;      1126 rIdx = r0x1046 
0086   00??           01967         MOVWF   r0x101C
                      01968 ;; >>> /home/sdcc-builder/build/sdcc-build/orig/sdcc/src/pic14/genarith.c:880:genPlus
0087   30??           01969         MOVLW   high (_arr + 0)
                      01970 ;; >>> /home/sdcc-builder/build/sdcc-build/orig/sdcc/src/pic14/genarith.c:881:genPlus
                      01971 ;;      1126 rIdx = r0x1048 
0088   00??           01972         MOVWF   r0x101E
                      01973 ;; >>> /home/sdcc-builder/build/sdcc-build/orig/sdcc/src/pic14/genarith.c:883:genPlus
                      01974 ;;      1126 rIdx = r0x1047 
0089   08??           01975         MOVF    r0x101D,W
                      01976 ;; >>> /home/sdcc-builder/build/sdcc-build/orig/sdcc/src/pic14/genarith.c:884:genPlus
008A   1803           01977         BTFSC   STATUS,0
                      01978 ;; >>> /home/sdcc-builder/build/sdcc-build/orig/sdcc/src/pic14/genarith.c:885:genPlus
                      01979 ;;      1126 rIdx = r0x1047 
008B   0F??           01980         INCFSZ  r0x101D,W
                      01981 ;; >>> /home/sdcc-builder/build/sdcc-build/orig/sdcc/src/pic14/genarith.c:886:genPlus
                      01982 ;;      1126 rIdx = r0x1048 
008C   07??           01983         ADDWF   r0x101E,F
                      01984 ;;; /home/sdcc-builder/build/sdcc-build/orig/sdcc/src/pic14/gen.c:2358:resultRemat *{*
                      01985 ;; ***  genPlus  707
                      01986 ;;; /home/sdcc-builder/build/sdcc-build/orig/sdcc/src/pic14/genarith.c:708:genPlus *{*
                      01987 ;;      708 register type nRegs=2
                      01988 ;;      708 register type nRegs=2
                      01989 ;;      line = 714 result AOP_REG=r0x1049, size=2, left AOP_REG=r0x1046, size=2, right AOP_LIT=0x01, siz
                            e=1
gpasm-1.5.0 #1285 (Sep 12 2016) obj\Debug\PB_   8-4-2020  19:47:27          PAGE 39


LOC    OBJECT CODE    LINE  SOURCE TEXT
  VALUE

                      01990 ;;; /home/sdcc-builder/build/sdcc-build/orig/sdcc/src/pic14/genarith.c:159:genPlusIncr *{*
                      01991 ;; ***  genPlusIncr  161
                      01992 ;;      result AOP_REG, left AOP_REG, right AOP_LIT
                      01993 ;;      genPlusIncr  173
                      01994 ;;      genPlusIncr  197
                      01995 ;;      adding lit to something. size 2
                      01996 ;;; /home/sdcc-builder/build/sdcc-build/orig/sdcc/src/pic14/genarith.c:286:genAddLit *{*
                      01997 ;; ***  genAddLit  287
                      01998 ;;  left and result aren't same genAddLit  537
                      01999 ;; >>> /home/sdcc-builder/build/sdcc-build/orig/sdcc/src/pic14/genarith.c:601:genAddLit
008D   3001           02000         MOVLW   0x01
                      02001 ;; >>> /home/sdcc-builder/build/sdcc-build/orig/sdcc/src/pic14/genarith.c:602:genAddLit
                      02002 ;;      1126 rIdx = r0x1046 
008E   07??           02003         ADDWF   r0x101C,W
                      02004 ;;; /home/sdcc-builder/build/sdcc-build/orig/sdcc/src/pic14/genarith.c:270:emitMOVWF *{*
                      02005 ;; >>> /home/sdcc-builder/build/sdcc-build/orig/sdcc/src/pic14/genarith.c:274:emitMOVWF
                      02006 ;;      1126 rIdx = r0x1049 
008F   00??           02007         MOVWF   r0x101F
                      02008 ;; >>> /home/sdcc-builder/build/sdcc-build/orig/sdcc/src/pic14/genarith.c:677:genAddLit
                      02009 ;;      1126 rIdx = r0x104A 
0090   01??           02010         CLRF    r0x1020
                      02011 ;; >>> /home/sdcc-builder/build/sdcc-build/orig/sdcc/src/pic14/genarith.c:678:genAddLit
                      02012 ;;      1126 rIdx = r0x104A 
0091   0D??           02013         RLF     r0x1020,F
                      02014 ;; >>> /home/sdcc-builder/build/sdcc-build/orig/sdcc/src/pic14/genarith.c:679:genAddLit
                      02015 ;;      1126 rIdx = r0x1048 
0092   08??           02016         MOVF    r0x101E,W
                      02017 ;; >>> /home/sdcc-builder/build/sdcc-build/orig/sdcc/src/pic14/genarith.c:680:genAddLit
                      02018 ;;      1126 rIdx = r0x104A 
0093   07??           02019         ADDWF   r0x1020,F
                      02020 ;; ***  addSign  1087
                      02021 ;;; /home/sdcc-builder/build/sdcc-build/orig/sdcc/src/pic14/genarith.c:1088:addSign *{*
                      02022 ;;; /home/sdcc-builder/build/sdcc-build/orig/sdcc/src/pic14/gen.c:2358:resultRemat *{*
                      02023 ;;; /home/sdcc-builder/build/sdcc-build/orig/sdcc/src/pic14/gen.c:6951:genPointerSet *{*
                      02024 ;; ***  genPointerSet  6952
                      02025 ;;; /home/sdcc-builder/build/sdcc-build/orig/sdcc/src/pic14/gen.c:6871:genNearPointerSet *{*
                      02026 ;; ***  genNearPointerSet  6872
                      02027 ;;      708 register type nRegs=2
                      02028 ;; ***  genNearPointerSet  6886
                      02029 ;;      line = 6888 result AOP_REG=r0x1049, size=2, left -=-, size=0, right AOP_LIT=0x01, size=1
                      02030 ;;; /home/sdcc-builder/build/sdcc-build/orig/sdcc/src/pic14/gen.c:1357:mov2w_op *{*
                      02031 ;; ***  mov2w  1395  offset=0
                      02032 ;; >>> /home/sdcc-builder/build/sdcc-build/orig/sdcc/src/pic14/gen.c:1400:mov2w
                      02033 ;;      1126 rIdx = r0x1049 
0094   08??           02034         MOVF    r0x101F,W
                      02035 ;; >>> /home/sdcc-builder/build/sdcc-build/orig/sdcc/src/pic14/gen.c:5851:setup_fsr
0095   1283 1303      02036         BANKSEL FSR
0097   0084           02037         MOVWF   FSR
                      02038 ;;; /home/sdcc-builder/build/sdcc-build/orig/sdcc/src/pic14/gen.c:5802:SetIrp *{*
                      02039 ;; >>> /home/sdcc-builder/build/sdcc-build/orig/sdcc/src/pic14/gen.c:5829:SetIrp
0098   1383           02040         BCF     STATUS,7
                      02041 ;; >>> /home/sdcc-builder/build/sdcc-build/orig/sdcc/src/pic14/gen.c:5832:SetIrp
0099   0??? 0???      02042         BANKSEL r0x1020
gpasm-1.5.0 #1285 (Sep 12 2016) obj\Debug\PB_   8-4-2020  19:47:27          PAGE 40


LOC    OBJECT CODE    LINE  SOURCE TEXT
  VALUE

009B   18??           02043         BTFSC   r0x1020,0
                      02044 ;; >>> /home/sdcc-builder/build/sdcc-build/orig/sdcc/src/pic14/gen.c:5833:SetIrp
009C   1783           02045         BSF     STATUS,7
                      02046 ;; >>> /home/sdcc-builder/build/sdcc-build/orig/sdcc/src/pic14/gen.c:6636:emitPtrPut
009D   3001           02047         MOVLW   0x01
                      02048 ;; >>> /home/sdcc-builder/build/sdcc-build/orig/sdcc/src/pic14/gen.c:6639:emitPtrPut
009E   1283 1303      02049         BANKSEL INDF
00A0   0080           02050         MOVWF   INDF
                      02051 ;; ***  genNearPointerSet  6905
                      02052 ;;; /home/sdcc-builder/build/sdcc-build/orig/sdcc/src/pic14/gen.c:2358:resultRemat *{*
                      02053 ;; ***  genPlus  707
                      02054 ;;; /home/sdcc-builder/build/sdcc-build/orig/sdcc/src/pic14/genarith.c:708:genPlus *{*
                      02055 ;;      708 register type nRegs=2
                      02056 ;;      708 register type nRegs=2
                      02057 ;;      line = 714 result AOP_REG=r0x1046, size=2, left AOP_REG=r0x1046, size=2, right AOP_LIT=0x02, siz
                            e=1
                      02058 ;;; /home/sdcc-builder/build/sdcc-build/orig/sdcc/src/pic14/genarith.c:159:genPlusIncr *{*
                      02059 ;; ***  genPlusIncr  161
                      02060 ;;      result AOP_REG, left AOP_REG, right AOP_LIT
                      02061 ;;      genPlusIncr  173
                      02062 ;;      genPlusIncr  197
                      02063 ;;      adding lit to something. size 2
                      02064 ;;; /home/sdcc-builder/build/sdcc-build/orig/sdcc/src/pic14/genarith.c:286:genAddLit *{*
                      02065 ;; ***  genAddLit  287
                      02066 ;; hi = 0       genAddLit  351
                      02067 ;; >>> /home/sdcc-builder/build/sdcc-build/orig/sdcc/src/pic14/genarith.c:367:genAddLit
                      02068         .line   39; "PB_driver.c"       arr[button].samples[1] = RELEASED_VOLTAGE;
00A1   3002           02069         MOVLW   0x02
                      02070 ;; >>> /home/sdcc-builder/build/sdcc-build/orig/sdcc/src/pic14/genarith.c:368:genAddLit
                      02071 ;;      1126 rIdx = r0x1046 
00A2   0??? 0???      02072         BANKSEL r0x101C
00A4   07??           02073         ADDWF   r0x101C,F
                      02074 ;; >>> /home/sdcc-builder/build/sdcc-build/orig/sdcc/src/pic14/genarith.c:369:genAddLit
00A5   1803           02075         BTFSC   STATUS,0
                      02076 ;; >>> /home/sdcc-builder/build/sdcc-build/orig/sdcc/src/pic14/genarith.c:370:genAddLit
                      02077 ;;      1126 rIdx = r0x1048 
00A6   0A??           02078         INCF    r0x101E,F
                      02079 ;; ***  addSign  1087
                      02080 ;;; /home/sdcc-builder/build/sdcc-build/orig/sdcc/src/pic14/genarith.c:1088:addSign *{*
                      02081 ;;; /home/sdcc-builder/build/sdcc-build/orig/sdcc/src/pic14/gen.c:2358:resultRemat *{*
                      02082 ;;; /home/sdcc-builder/build/sdcc-build/orig/sdcc/src/pic14/gen.c:6951:genPointerSet *{*
                      02083 ;; ***  genPointerSet  6952
                      02084 ;;; /home/sdcc-builder/build/sdcc-build/orig/sdcc/src/pic14/gen.c:6871:genNearPointerSet *{*
                      02085 ;; ***  genNearPointerSet  6872
                      02086 ;;      708 register type nRegs=2
                      02087 ;; ***  genNearPointerSet  6886
                      02088 ;;      line = 6888 result AOP_REG=r0x1046, size=2, left -=-, size=0, right AOP_LIT=0x01, size=1
                      02089 ;;; /home/sdcc-builder/build/sdcc-build/orig/sdcc/src/pic14/gen.c:1357:mov2w_op *{*
                      02090 ;; ***  mov2w  1395  offset=0
                      02091 ;; >>> /home/sdcc-builder/build/sdcc-build/orig/sdcc/src/pic14/gen.c:1400:mov2w
                      02092 ;;      1126 rIdx = r0x1046 
00A7   08??           02093         MOVF    r0x101C,W
                      02094 ;; >>> /home/sdcc-builder/build/sdcc-build/orig/sdcc/src/pic14/gen.c:5851:setup_fsr
gpasm-1.5.0 #1285 (Sep 12 2016) obj\Debug\PB_   8-4-2020  19:47:27          PAGE 41


LOC    OBJECT CODE    LINE  SOURCE TEXT
  VALUE

00A8   1283 1303      02095         BANKSEL FSR
00AA   0084           02096         MOVWF   FSR
                      02097 ;;; /home/sdcc-builder/build/sdcc-build/orig/sdcc/src/pic14/gen.c:5802:SetIrp *{*
                      02098 ;; >>> /home/sdcc-builder/build/sdcc-build/orig/sdcc/src/pic14/gen.c:5829:SetIrp
00AB   1383           02099         BCF     STATUS,7
                      02100 ;; >>> /home/sdcc-builder/build/sdcc-build/orig/sdcc/src/pic14/gen.c:5832:SetIrp
00AC   0??? 0???      02101         BANKSEL r0x101E
00AE   18??           02102         BTFSC   r0x101E,0
                      02103 ;; >>> /home/sdcc-builder/build/sdcc-build/orig/sdcc/src/pic14/gen.c:5833:SetIrp
00AF   1783           02104         BSF     STATUS,7
                      02105 ;; >>> /home/sdcc-builder/build/sdcc-build/orig/sdcc/src/pic14/gen.c:6636:emitPtrPut
00B0   3001           02106         MOVLW   0x01
                      02107 ;; >>> /home/sdcc-builder/build/sdcc-build/orig/sdcc/src/pic14/gen.c:6639:emitPtrPut
00B1   1283 1303      02108         BANKSEL INDF
00B3   0080           02109         MOVWF   INDF
                      02110 ;; ***  genNearPointerSet  6905
                      02111 ;;; /home/sdcc-builder/build/sdcc-build/orig/sdcc/src/pic14/gen.c:2358:resultRemat *{*
                      02112 ;;; /home/sdcc-builder/build/sdcc-build/orig/sdcc/src/pic14/gen.c:2820:genGoto *{*
                      02113 ;; >>> /home/sdcc-builder/build/sdcc-build/orig/sdcc/src/pic14/gen.c:2822:genGoto
                      02114 ;; ***  popGetLabel  key=12, label offset 4
                      02115         .line   40; "PB_driver.c"       break;
00B4   2???           02116         GOTO    _00116_DS_
                      02117 ;;; /home/sdcc-builder/build/sdcc-build/orig/sdcc/src/pic14/gen.c:2358:resultRemat *{*
                      02118 ;;; /home/sdcc-builder/build/sdcc-build/orig/sdcc/src/pic14/gen.c:2802:genLabel *{*
                      02119 ;; ***  genLabel  2805
                      02120 ;;; /home/sdcc-builder/build/sdcc-build/orig/sdcc/src/pic14/gen.c:2358:resultRemat *{*
                      02121 ;; ***  genPlus  707
                      02122 ;;; /home/sdcc-builder/build/sdcc-build/orig/sdcc/src/pic14/genarith.c:708:genPlus *{*
                      02123 ;;      627
                      02124 ;;      aopForRemat 406
                      02125 ;;      432: rname _arr, val 0, const = 0
                      02126 ;;      708 register type nRegs=2
                      02127 ;;      708 register type nRegs=2
                      02128 ;;      837: aopGet AOP_PCODE type PO_IMMEDIATE
                      02129 ;;      _arr
                      02130 ;;      line = 714 result AOP_REG=r0x1045, size=2, left AOP_PCODE=_arr, size=2, right AOP_REG=r0x1045, s
                            ize=2
                      02131 ;;; /home/sdcc-builder/build/sdcc-build/orig/sdcc/src/pic14/genarith.c:159:genPlusIncr *{*
                      02132 ;; ***  genPlusIncr  161
                      02133 ;;      result AOP_REG, left AOP_PCODE, right AOP_REG
                      02134 ;; ***  genPlus  814
                      02135 ;;      837: aopGet AOP_PCODE type PO_IMMEDIATE
                      02136 ;;      _arr
                      02137 ;; >>> /home/sdcc-builder/build/sdcc-build/orig/sdcc/src/pic14/genarith.c:823:genPlus
                      02138 ;;      1126 rIdx = r0x1045 
00B5                  02139 _00114_DS_:
                      02140         .line   44; "PB_driver.c"       arr[button].samples[0] = PRESSED_VOLTAGE;
00B5   0??? 0???      02141         BANKSEL r0x101B
00B7   08??           02142         MOVF    r0x101B,W
                      02143 ;; >>> /home/sdcc-builder/build/sdcc-build/orig/sdcc/src/pic14/genarith.c:832:genPlus
00B8   3E??           02144         ADDLW   (_arr + 0)
                      02145 ;; >>> /home/sdcc-builder/build/sdcc-build/orig/sdcc/src/pic14/genarith.c:833:genPlus
                      02146 ;;      1126 rIdx = r0x1045 
gpasm-1.5.0 #1285 (Sep 12 2016) obj\Debug\PB_   8-4-2020  19:47:27          PAGE 42


LOC    OBJECT CODE    LINE  SOURCE TEXT
  VALUE

00B9   00??           02147         MOVWF   r0x101B
                      02148 ;; >>> /home/sdcc-builder/build/sdcc-build/orig/sdcc/src/pic14/genarith.c:849:genPlus
                      02149 ;;      1126 rIdx = r0x1047 
00BA   08??           02150         MOVF    r0x101D,W
                      02151 ;; >>> /home/sdcc-builder/build/sdcc-build/orig/sdcc/src/pic14/genarith.c:850:genPlus
00BB   1803           02152         BTFSC   STATUS,0
                      02153 ;; >>> /home/sdcc-builder/build/sdcc-build/orig/sdcc/src/pic14/genarith.c:851:genPlus
                      02154 ;;      1126 rIdx = r0x1047 
00BC   0F??           02155         INCFSZ  r0x101D,W
                      02156 ;; >>> /home/sdcc-builder/build/sdcc-build/orig/sdcc/src/pic14/genarith.c:852:genPlus
00BD   3E??           02157         ADDLW   high (_arr + 0)
                      02158 ;; >>> /home/sdcc-builder/build/sdcc-build/orig/sdcc/src/pic14/genarith.c:853:genPlus
                      02159 ;;      1126 rIdx = r0x1047 
00BE   00??           02160         MOVWF   r0x101D
                      02161 ;;; /home/sdcc-builder/build/sdcc-build/orig/sdcc/src/pic14/gen.c:2358:resultRemat *{*
                      02162 ;; ***  genPlus  707
                      02163 ;;; /home/sdcc-builder/build/sdcc-build/orig/sdcc/src/pic14/genarith.c:708:genPlus *{*
                      02164 ;;      708 register type nRegs=2
                      02165 ;;      708 register type nRegs=2
                      02166 ;;      line = 714 result AOP_REG=r0x1046, size=2, left AOP_REG=r0x1045, size=2, right AOP_LIT=0x01, siz
                            e=1
                      02167 ;;; /home/sdcc-builder/build/sdcc-build/orig/sdcc/src/pic14/genarith.c:159:genPlusIncr *{*
                      02168 ;; ***  genPlusIncr  161
                      02169 ;;      result AOP_REG, left AOP_REG, right AOP_LIT
                      02170 ;;      genPlusIncr  173
                      02171 ;;      genPlusIncr  197
                      02172 ;;      adding lit to something. size 2
                      02173 ;;; /home/sdcc-builder/build/sdcc-build/orig/sdcc/src/pic14/genarith.c:286:genAddLit *{*
                      02174 ;; ***  genAddLit  287
                      02175 ;;  left and result aren't same genAddLit  537
                      02176 ;; >>> /home/sdcc-builder/build/sdcc-build/orig/sdcc/src/pic14/genarith.c:601:genAddLit
00BF   3001           02177         MOVLW   0x01
                      02178 ;; >>> /home/sdcc-builder/build/sdcc-build/orig/sdcc/src/pic14/genarith.c:602:genAddLit
                      02179 ;;      1126 rIdx = r0x1045 
00C0   07??           02180         ADDWF   r0x101B,W
                      02181 ;;; /home/sdcc-builder/build/sdcc-build/orig/sdcc/src/pic14/genarith.c:270:emitMOVWF *{*
                      02182 ;; >>> /home/sdcc-builder/build/sdcc-build/orig/sdcc/src/pic14/genarith.c:274:emitMOVWF
                      02183 ;;      1126 rIdx = r0x1046 
00C1   00??           02184         MOVWF   r0x101C
                      02185 ;; >>> /home/sdcc-builder/build/sdcc-build/orig/sdcc/src/pic14/genarith.c:677:genAddLit
                      02186 ;;      1126 rIdx = r0x1048 
00C2   01??           02187         CLRF    r0x101E
                      02188 ;; >>> /home/sdcc-builder/build/sdcc-build/orig/sdcc/src/pic14/genarith.c:678:genAddLit
                      02189 ;;      1126 rIdx = r0x1048 
00C3   0D??           02190         RLF     r0x101E,F
                      02191 ;; >>> /home/sdcc-builder/build/sdcc-build/orig/sdcc/src/pic14/genarith.c:679:genAddLit
                      02192 ;;      1126 rIdx = r0x1047 
00C4   08??           02193         MOVF    r0x101D,W
                      02194 ;; >>> /home/sdcc-builder/build/sdcc-build/orig/sdcc/src/pic14/genarith.c:680:genAddLit
                      02195 ;;      1126 rIdx = r0x1048 
00C5   07??           02196         ADDWF   r0x101E,F
                      02197 ;; ***  addSign  1087
                      02198 ;;; /home/sdcc-builder/build/sdcc-build/orig/sdcc/src/pic14/genarith.c:1088:addSign *{*
gpasm-1.5.0 #1285 (Sep 12 2016) obj\Debug\PB_   8-4-2020  19:47:27          PAGE 43


LOC    OBJECT CODE    LINE  SOURCE TEXT
  VALUE

                      02199 ;;; /home/sdcc-builder/build/sdcc-build/orig/sdcc/src/pic14/gen.c:2358:resultRemat *{*
                      02200 ;;; /home/sdcc-builder/build/sdcc-build/orig/sdcc/src/pic14/gen.c:6951:genPointerSet *{*
                      02201 ;; ***  genPointerSet  6952
                      02202 ;;; /home/sdcc-builder/build/sdcc-build/orig/sdcc/src/pic14/gen.c:6871:genNearPointerSet *{*
                      02203 ;; ***  genNearPointerSet  6872
                      02204 ;;      708 register type nRegs=2
                      02205 ;; ***  genNearPointerSet  6886
                      02206 ;;      line = 6888 result AOP_REG=r0x1046, size=2, left -=-, size=0, right AOP_LIT=0x00, size=1
                      02207 ;;; /home/sdcc-builder/build/sdcc-build/orig/sdcc/src/pic14/gen.c:1357:mov2w_op *{*
                      02208 ;; ***  mov2w  1395  offset=0
                      02209 ;; >>> /home/sdcc-builder/build/sdcc-build/orig/sdcc/src/pic14/gen.c:1400:mov2w
                      02210 ;;      1126 rIdx = r0x1046 
00C6   08??           02211         MOVF    r0x101C,W
                      02212 ;; >>> /home/sdcc-builder/build/sdcc-build/orig/sdcc/src/pic14/gen.c:5851:setup_fsr
00C7   1283 1303      02213         BANKSEL FSR
00C9   0084           02214         MOVWF   FSR
                      02215 ;;; /home/sdcc-builder/build/sdcc-build/orig/sdcc/src/pic14/gen.c:5802:SetIrp *{*
                      02216 ;; >>> /home/sdcc-builder/build/sdcc-build/orig/sdcc/src/pic14/gen.c:5829:SetIrp
00CA   1383           02217         BCF     STATUS,7
                      02218 ;; >>> /home/sdcc-builder/build/sdcc-build/orig/sdcc/src/pic14/gen.c:5832:SetIrp
00CB   0??? 0???      02219         BANKSEL r0x101E
00CD   18??           02220         BTFSC   r0x101E,0
                      02221 ;; >>> /home/sdcc-builder/build/sdcc-build/orig/sdcc/src/pic14/gen.c:5833:SetIrp
00CE   1783           02222         BSF     STATUS,7
                      02223 ;; >>> /home/sdcc-builder/build/sdcc-build/orig/sdcc/src/pic14/gen.c:6636:emitPtrPut
00CF   3000           02224         MOVLW   0x00
                      02225 ;; >>> /home/sdcc-builder/build/sdcc-build/orig/sdcc/src/pic14/gen.c:6639:emitPtrPut
00D0   1283 1303      02226         BANKSEL INDF
00D2   0080           02227         MOVWF   INDF
                      02228 ;; ***  genNearPointerSet  6905
                      02229 ;;; /home/sdcc-builder/build/sdcc-build/orig/sdcc/src/pic14/gen.c:2358:resultRemat *{*
                      02230 ;; ***  genPlus  707
                      02231 ;;; /home/sdcc-builder/build/sdcc-build/orig/sdcc/src/pic14/genarith.c:708:genPlus *{*
                      02232 ;;      708 register type nRegs=2
                      02233 ;;      708 register type nRegs=2
                      02234 ;;      line = 714 result AOP_REG=r0x1045, size=2, left AOP_REG=r0x1045, size=2, right AOP_LIT=0x02, siz
                            e=1
                      02235 ;;; /home/sdcc-builder/build/sdcc-build/orig/sdcc/src/pic14/genarith.c:159:genPlusIncr *{*
                      02236 ;; ***  genPlusIncr  161
                      02237 ;;      result AOP_REG, left AOP_REG, right AOP_LIT
                      02238 ;;      genPlusIncr  173
                      02239 ;;      genPlusIncr  197
                      02240 ;;      adding lit to something. size 2
                      02241 ;;; /home/sdcc-builder/build/sdcc-build/orig/sdcc/src/pic14/genarith.c:286:genAddLit *{*
                      02242 ;; ***  genAddLit  287
                      02243 ;; hi = 0       genAddLit  351
                      02244 ;; >>> /home/sdcc-builder/build/sdcc-build/orig/sdcc/src/pic14/genarith.c:367:genAddLit
                      02245         .line   45; "PB_driver.c"       arr[button].samples[1] = PRESSED_VOLTAGE;
00D3   3002           02246         MOVLW   0x02
                      02247 ;; >>> /home/sdcc-builder/build/sdcc-build/orig/sdcc/src/pic14/genarith.c:368:genAddLit
                      02248 ;;      1126 rIdx = r0x1045 
00D4   0??? 0???      02249         BANKSEL r0x101B
00D6   07??           02250         ADDWF   r0x101B,F
gpasm-1.5.0 #1285 (Sep 12 2016) obj\Debug\PB_   8-4-2020  19:47:27          PAGE 44


LOC    OBJECT CODE    LINE  SOURCE TEXT
  VALUE

                      02251 ;; >>> /home/sdcc-builder/build/sdcc-build/orig/sdcc/src/pic14/genarith.c:369:genAddLit
00D7   1803           02252         BTFSC   STATUS,0
                      02253 ;; >>> /home/sdcc-builder/build/sdcc-build/orig/sdcc/src/pic14/genarith.c:370:genAddLit
                      02254 ;;      1126 rIdx = r0x1047 
00D8   0A??           02255         INCF    r0x101D,F
                      02256 ;; ***  addSign  1087
                      02257 ;;; /home/sdcc-builder/build/sdcc-build/orig/sdcc/src/pic14/genarith.c:1088:addSign *{*
                      02258 ;;; /home/sdcc-builder/build/sdcc-build/orig/sdcc/src/pic14/gen.c:2358:resultRemat *{*
                      02259 ;;; /home/sdcc-builder/build/sdcc-build/orig/sdcc/src/pic14/gen.c:6951:genPointerSet *{*
                      02260 ;; ***  genPointerSet  6952
                      02261 ;;; /home/sdcc-builder/build/sdcc-build/orig/sdcc/src/pic14/gen.c:6871:genNearPointerSet *{*
                      02262 ;; ***  genNearPointerSet  6872
                      02263 ;;      708 register type nRegs=2
                      02264 ;; ***  genNearPointerSet  6886
                      02265 ;;      line = 6888 result AOP_REG=r0x1045, size=2, left -=-, size=0, right AOP_LIT=0x00, size=1
                      02266 ;;; /home/sdcc-builder/build/sdcc-build/orig/sdcc/src/pic14/gen.c:1357:mov2w_op *{*
                      02267 ;; ***  mov2w  1395  offset=0
                      02268 ;; >>> /home/sdcc-builder/build/sdcc-build/orig/sdcc/src/pic14/gen.c:1400:mov2w
                      02269 ;;      1126 rIdx = r0x1045 
00D9   08??           02270         MOVF    r0x101B,W
                      02271 ;; >>> /home/sdcc-builder/build/sdcc-build/orig/sdcc/src/pic14/gen.c:5851:setup_fsr
00DA   1283 1303      02272         BANKSEL FSR
00DC   0084           02273         MOVWF   FSR
                      02274 ;;; /home/sdcc-builder/build/sdcc-build/orig/sdcc/src/pic14/gen.c:5802:SetIrp *{*
                      02275 ;; >>> /home/sdcc-builder/build/sdcc-build/orig/sdcc/src/pic14/gen.c:5829:SetIrp
00DD   1383           02276         BCF     STATUS,7
                      02277 ;; >>> /home/sdcc-builder/build/sdcc-build/orig/sdcc/src/pic14/gen.c:5832:SetIrp
00DE   0??? 0???      02278         BANKSEL r0x101D
00E0   18??           02279         BTFSC   r0x101D,0
                      02280 ;; >>> /home/sdcc-builder/build/sdcc-build/orig/sdcc/src/pic14/gen.c:5833:SetIrp
00E1   1783           02281         BSF     STATUS,7
                      02282 ;; >>> /home/sdcc-builder/build/sdcc-build/orig/sdcc/src/pic14/gen.c:6636:emitPtrPut
00E2   3000           02283         MOVLW   0x00
                      02284 ;; >>> /home/sdcc-builder/build/sdcc-build/orig/sdcc/src/pic14/gen.c:6639:emitPtrPut
00E3   1283 1303      02285         BANKSEL INDF
00E5   0080           02286         MOVWF   INDF
                      02287 ;; ***  genNearPointerSet  6905
                      02288 ;;; /home/sdcc-builder/build/sdcc-build/orig/sdcc/src/pic14/gen.c:2358:resultRemat *{*
                      02289 ;;; /home/sdcc-builder/build/sdcc-build/orig/sdcc/src/pic14/gen.c:2802:genLabel *{*
                      02290 ;; ***  genLabel  2805
                      02291 ;;; /home/sdcc-builder/build/sdcc-build/orig/sdcc/src/pic14/gen.c:2358:resultRemat *{*
                      02292 ;;; /home/sdcc-builder/build/sdcc-build/orig/sdcc/src/pic14/gen.c:2570:genEndFunction *{*
                      02293 ;; ***  genEndFunction  2572
00E6                  02294 _00116_DS_:
                      02295         .line   48; "PB_driver.c"       }
00E6   0008           02296         RETURN  
                      02297 ; exit point of _PB_DRIVER_INIT
                      02298 ;;; /home/sdcc-builder/build/sdcc-build/orig/sdcc/src/pic14/gen.c:7710:genpic14Code *{*
                      02299 
                      02300 
                      02301 ;       code size estimation:
                      02302 ;         416+  116 =   532 instructions ( 1296 byte)
                      02303 
gpasm-1.5.0 #1285 (Sep 12 2016) obj\Debug\PB_   8-4-2020  19:47:27          PAGE 45


LOC    OBJECT CODE    LINE  SOURCE TEXT
  VALUE

                      02304         end
gpasm-1.5.0 #1285 (Sep 12 2016) obj\Debug\PB_   8-4-2020  19:47:27          PAGE 46


SYMBOL TABLE
  LABEL                              TYPE        VALUE         VALUE          VALUE
                                                 (hex)         (dec)          (text)

ACKDT                             CONSTANT      00000005              5
ACKEN                             CONSTANT      00000004              4
ACKSTAT                           CONSTANT      00000006              6
ADCON0                            CONSTANT      0000001F             31
ADCON1                            CONSTANT      0000009F            159
ADCS0                             CONSTANT      00000006              6
ADCS1                             CONSTANT      00000007              7
ADCS2                             CONSTANT      00000006              6
ADDEN                             CONSTANT      00000003              3
ADFM                              CONSTANT      00000007              7
ADIE                              CONSTANT      00000006              6
ADIF                              CONSTANT      00000006              6
ADON                              CONSTANT      00000000              0
ADRESH                            CONSTANT      0000001E             30
ADRESL                            CONSTANT      0000009E            158
BCLIE                             CONSTANT      00000003              3
BCLIF                             CONSTANT      00000003              3
BF                                CONSTANT      00000000              0
BRGH                              CONSTANT      00000002              2
C                                 CONSTANT      00000000              0
C1INV                             CONSTANT      00000004              4
C1OUT                             CONSTANT      00000006              6
C2INV                             CONSTANT      00000005              5
C2OUT                             CONSTANT      00000007              7
CCP1CON                           CONSTANT      00000017             23
CCP1IE                            CONSTANT      00000002              2
CCP1IF                            CONSTANT      00000002              2
CCP1M0                            CONSTANT      00000000              0
CCP1M1                            CONSTANT      00000001              1
CCP1M2                            CONSTANT      00000002              2
CCP1M3                            CONSTANT      00000003              3
CCP1X                             CONSTANT      00000005              5
CCP1Y                             CONSTANT      00000004              4
CCP2CON                           CONSTANT      0000001D             29
CCP2IE                            CONSTANT      00000000              0
CCP2IF                            CONSTANT      00000000              0
CCP2M0                            CONSTANT      00000000              0
CCP2M1                            CONSTANT      00000001              1
CCP2M2                            CONSTANT      00000002              2
CCP2M3                            CONSTANT      00000003              3
CCP2X                             CONSTANT      00000005              5
CCP2Y                             CONSTANT      00000004              4
CCPR1                             CONSTANT      00000015             21
CCPR1H                            CONSTANT      00000016             22
CCPR1L                            CONSTANT      00000015             21
CCPR2                             CONSTANT      0000001B             27
CCPR2H                            CONSTANT      0000001C             28
CCPR2L                            CONSTANT      0000001B             27
CHS0                              CONSTANT      00000003              3
CHS1                              CONSTANT      00000004              4
CHS2                              CONSTANT      00000005              5
CIS                               CONSTANT      00000003              3
gpasm-1.5.0 #1285 (Sep 12 2016) obj\Debug\PB_   8-4-2020  19:47:27          PAGE 47


SYMBOL TABLE
  LABEL                              TYPE        VALUE         VALUE          VALUE
                                                 (hex)         (dec)          (text)

CKE                               CONSTANT      00000006              6
CKP                               CONSTANT      00000004              4
CM0                               CONSTANT      00000000              0
CM1                               CONSTANT      00000001              1
CM2                               CONSTANT      00000002              2
CMCON                             CONSTANT      0000009C            156
CMIE                              CONSTANT      00000006              6
CMIF                              CONSTANT      00000006              6
CREN                              CONSTANT      00000004              4
CSRC                              CONSTANT      00000007              7
CVR0                              CONSTANT      00000000              0
CVR1                              CONSTANT      00000001              1
CVR2                              CONSTANT      00000002              2
CVR3                              CONSTANT      00000003              3
CVRCON                            CONSTANT      0000009D            157
CVREN                             CONSTANT      00000007              7
CVROE                             CONSTANT      00000006              6
CVRR                              CONSTANT      00000005              5
D                                 CONSTANT      00000005              5
DATA_ADDRESS                      CONSTANT      00000005              5
DC                                CONSTANT      00000001              1
D_A                               CONSTANT      00000005              5
D_NOT_A                           CONSTANT      00000005              5
EEADR                             CONSTANT      0000010D            269
EEADRH                            CONSTANT      0000010F            271
EECON1                            CONSTANT      0000018C            396
EECON2                            CONSTANT      0000018D            397
EEDATA                            CONSTANT      0000010C            268
EEDATH                            CONSTANT      0000010E            270
EEIE                              CONSTANT      00000004              4
EEIF                              CONSTANT      00000004              4
EEPGD                             CONSTANT      00000007              7
F                                 CONSTANT      00000001              1
FERR                              CONSTANT      00000002              2
FSR                               CONSTANT      00000004              4
GCEN                              CONSTANT      00000007              7
GIE                               CONSTANT      00000007              7
GO                                CONSTANT      00000002              2
GO_DONE                           CONSTANT      00000002              2
GO_NOT_DONE                       CONSTANT      00000002              2
I2C_DATA                          CONSTANT      00000005              5
I2C_READ                          CONSTANT      00000002              2
I2C_START                         CONSTANT      00000003              3
I2C_STOP                          CONSTANT      00000004              4
IBF                               CONSTANT      00000007              7
IBOV                              CONSTANT      00000005              5
INDF                              CONSTANT      00000000              0
INTCON                            CONSTANT      0000000B             11
INTE                              CONSTANT      00000004              4
INTEDG                            CONSTANT      00000006              6
INTF                              CONSTANT      00000001              1
IRP                               CONSTANT      00000007              7
gpasm-1.5.0 #1285 (Sep 12 2016) obj\Debug\PB_   8-4-2020  19:47:27          PAGE 48


SYMBOL TABLE
  LABEL                              TYPE        VALUE         VALUE          VALUE
                                                 (hex)         (dec)          (text)

NOT_A                             CONSTANT      00000005              5
NOT_ADDRESS                       CONSTANT      00000005              5
NOT_BO                            CONSTANT      00000000              0
NOT_BOR                           CONSTANT      00000000              0
NOT_DONE                          CONSTANT      00000002              2
NOT_PD                            CONSTANT      00000003              3
NOT_POR                           CONSTANT      00000001              1
NOT_RBPU                          CONSTANT      00000007              7
NOT_RC8                           CONSTANT      00000006              6
NOT_T1SYNC                        CONSTANT      00000002              2
NOT_TO                            CONSTANT      00000004              4
NOT_TX8                           CONSTANT      00000006              6
NOT_W                             CONSTANT      00000002              2
NOT_WRITE                         CONSTANT      00000002              2
OBF                               CONSTANT      00000006              6
OERR                              CONSTANT      00000001              1
OPTION_REG                        CONSTANT      00000081            129
P                                 CONSTANT      00000004              4
PCFG0                             CONSTANT      00000000              0
PCFG1                             CONSTANT      00000001              1
PCFG2                             CONSTANT      00000002              2
PCFG3                             CONSTANT      00000003              3
PCL                               CONSTANT      00000002              2
PCLATH                            CONSTANT      0000000A             10
PCON                              CONSTANT      0000008E            142
PEIE                              CONSTANT      00000006              6
PEN                               CONSTANT      00000002              2
PIE1                              CONSTANT      0000008C            140
PIE2                              CONSTANT      0000008D            141
PIR1                              CONSTANT      0000000C             12
PIR2                              CONSTANT      0000000D             13
PORTA                             CONSTANT      00000005              5
PORTB                             CONSTANT      00000006              6
PORTC                             CONSTANT      00000007              7
PORTD                             CONSTANT      00000008              8
PORTE                             CONSTANT      00000009              9
PR2                               CONSTANT      00000092            146
PS0                               CONSTANT      00000000              0
PS1                               CONSTANT      00000001              1
PS2                               CONSTANT      00000002              2
PSA                               CONSTANT      00000003              3
PSAVE                             EXTERNAL      00000000              0
PSPIE                             CONSTANT      00000007              7
PSPIF                             CONSTANT      00000007              7
PSPMODE                           CONSTANT      00000004              4
R                                 CONSTANT      00000002              2
RA0                               CONSTANT      00000000              0
RA1                               CONSTANT      00000001              1
RA2                               CONSTANT      00000002              2
RA3                               CONSTANT      00000003              3
RA4                               CONSTANT      00000004              4
RA5                               CONSTANT      00000005              5
gpasm-1.5.0 #1285 (Sep 12 2016) obj\Debug\PB_   8-4-2020  19:47:27          PAGE 49


SYMBOL TABLE
  LABEL                              TYPE        VALUE         VALUE          VALUE
                                                 (hex)         (dec)          (text)

RB0                               CONSTANT      00000000              0
RB1                               CONSTANT      00000001              1
RB2                               CONSTANT      00000002              2
RB3                               CONSTANT      00000003              3
RB4                               CONSTANT      00000004              4
RB5                               CONSTANT      00000005              5
RB6                               CONSTANT      00000006              6
RB7                               CONSTANT      00000007              7
RBIE                              CONSTANT      00000003              3
RBIF                              CONSTANT      00000000              0
RC0                               CONSTANT      00000000              0
RC1                               CONSTANT      00000001              1
RC2                               CONSTANT      00000002              2
RC3                               CONSTANT      00000003              3
RC4                               CONSTANT      00000004              4
RC5                               CONSTANT      00000005              5
RC6                               CONSTANT      00000006              6
RC7                               CONSTANT      00000007              7
RC8_9                             CONSTANT      00000006              6
RC9                               CONSTANT      00000006              6
RCD8                              CONSTANT      00000000              0
RCEN                              CONSTANT      00000003              3
RCIE                              CONSTANT      00000005              5
RCIF                              CONSTANT      00000005              5
RCREG                             CONSTANT      0000001A             26
RCSTA                             CONSTANT      00000018             24
RD                                CONSTANT      00000000              0
RD0                               CONSTANT      00000000              0
RD1                               CONSTANT      00000001              1
RD2                               CONSTANT      00000002              2
RD3                               CONSTANT      00000003              3
RD4                               CONSTANT      00000004              4
RD5                               CONSTANT      00000005              5
RD6                               CONSTANT      00000006              6
RD7                               CONSTANT      00000007              7
RE0                               CONSTANT      00000000              0
RE1                               CONSTANT      00000001              1
RE2                               CONSTANT      00000002              2
READ_WRITE                        CONSTANT      00000002              2
RP0                               CONSTANT      00000005              5
RP1                               CONSTANT      00000006              6
RSEN                              CONSTANT      00000001              1
RX9                               CONSTANT      00000006              6
RX9D                              CONSTANT      00000000              0
R_NOT_W                           CONSTANT      00000002              2
R_W                               CONSTANT      00000002              2
S                                 CONSTANT      00000003              3
SEN                               CONSTANT      00000000              0
SMP                               CONSTANT      00000007              7
SPBRG                             CONSTANT      00000099            153
SPEN                              CONSTANT      00000007              7
SREN                              CONSTANT      00000005              5
gpasm-1.5.0 #1285 (Sep 12 2016) obj\Debug\PB_   8-4-2020  19:47:27          PAGE 50


SYMBOL TABLE
  LABEL                              TYPE        VALUE         VALUE          VALUE
                                                 (hex)         (dec)          (text)

SSAVE                             EXTERNAL      00000000              0
SSPADD                            CONSTANT      00000093            147
SSPBUF                            CONSTANT      00000013             19
SSPCON                            CONSTANT      00000014             20
SSPCON2                           CONSTANT      00000091            145
SSPEN                             CONSTANT      00000005              5
SSPIE                             CONSTANT      00000003              3
SSPIF                             CONSTANT      00000003              3
SSPM0                             CONSTANT      00000000              0
SSPM1                             CONSTANT      00000001              1
SSPM2                             CONSTANT      00000002              2
SSPM3                             CONSTANT      00000003              3
SSPOV                             CONSTANT      00000006              6
SSPSTAT                           CONSTANT      00000094            148
STATUS                            CONSTANT      00000003              3
STK00                             EXTERNAL      00000000              0
STK01                             EXTERNAL      00000000              0
STK02                             EXTERNAL      00000000              0
STK03                             EXTERNAL      00000000              0
STK04                             EXTERNAL      00000000              0
STK05                             EXTERNAL      00000000              0
STK06                             EXTERNAL      00000000              0
STK07                             EXTERNAL      00000000              0
STK08                             EXTERNAL      00000000              0
STK09                             EXTERNAL      00000000              0
STK10                             EXTERNAL      00000000              0
STK11                             EXTERNAL      00000000              0
STK12                             EXTERNAL      00000000              0
SYNC                              CONSTANT      00000004              4
T0CS                              CONSTANT      00000005              5
T0IE                              CONSTANT      00000005              5
T0IF                              CONSTANT      00000002              2
T0SE                              CONSTANT      00000004              4
T1CKPS0                           CONSTANT      00000004              4
T1CKPS1                           CONSTANT      00000005              5
T1CON                             CONSTANT      00000010             16
T1INSYNC                          CONSTANT      00000002              2
T1OSCEN                           CONSTANT      00000003              3
T1SYNC                            CONSTANT      00000002              2
T2CKPS0                           CONSTANT      00000000              0
T2CKPS1                           CONSTANT      00000001              1
T2CON                             CONSTANT      00000012             18
TMR0                              CONSTANT      00000001              1
TMR0IE                            CONSTANT      00000005              5
TMR0IF                            CONSTANT      00000002              2
TMR1                              CONSTANT      0000000E             14
TMR1CS                            CONSTANT      00000001              1
TMR1H                             CONSTANT      0000000F             15
TMR1IE                            CONSTANT      00000000              0
TMR1IF                            CONSTANT      00000000              0
TMR1L                             CONSTANT      0000000E             14
TMR1ON                            CONSTANT      00000000              0
gpasm-1.5.0 #1285 (Sep 12 2016) obj\Debug\PB_   8-4-2020  19:47:27          PAGE 51


SYMBOL TABLE
  LABEL                              TYPE        VALUE         VALUE          VALUE
                                                 (hex)         (dec)          (text)

TMR2                              CONSTANT      00000011             17
TMR2IE                            CONSTANT      00000001              1
TMR2IF                            CONSTANT      00000001              1
TMR2ON                            CONSTANT      00000002              2
TOUTPS0                           CONSTANT      00000003              3
TOUTPS1                           CONSTANT      00000004              4
TOUTPS2                           CONSTANT      00000005              5
TOUTPS3                           CONSTANT      00000006              6
TRISA                             CONSTANT      00000085            133
TRISA0                            CONSTANT      00000000              0
TRISA1                            CONSTANT      00000001              1
TRISA2                            CONSTANT      00000002              2
TRISA3                            CONSTANT      00000003              3
TRISA4                            CONSTANT      00000004              4
TRISA5                            CONSTANT      00000005              5
TRISB                             CONSTANT      00000086            134
TRISB0                            CONSTANT      00000000              0
TRISB1                            CONSTANT      00000001              1
TRISB2                            CONSTANT      00000002              2
TRISB3                            CONSTANT      00000003              3
TRISB4                            CONSTANT      00000004              4
TRISB5                            CONSTANT      00000005              5
TRISB6                            CONSTANT      00000006              6
TRISB7                            CONSTANT      00000007              7
TRISC                             CONSTANT      00000087            135
TRISC0                            CONSTANT      00000000              0
TRISC1                            CONSTANT      00000001              1
TRISC2                            CONSTANT      00000002              2
TRISC3                            CONSTANT      00000003              3
TRISC4                            CONSTANT      00000004              4
TRISC5                            CONSTANT      00000005              5
TRISC6                            CONSTANT      00000006              6
TRISC7                            CONSTANT      00000007              7
TRISD                             CONSTANT      00000088            136
TRISD0                            CONSTANT      00000000              0
TRISD1                            CONSTANT      00000001              1
TRISD2                            CONSTANT      00000002              2
TRISD3                            CONSTANT      00000003              3
TRISD4                            CONSTANT      00000004              4
TRISD5                            CONSTANT      00000005              5
TRISD6                            CONSTANT      00000006              6
TRISD7                            CONSTANT      00000007              7
TRISE                             CONSTANT      00000089            137
TRISE0                            CONSTANT      00000000              0
TRISE1                            CONSTANT      00000001              1
TRISE2                            CONSTANT      00000002              2
TRMT                              CONSTANT      00000001              1
TX8_9                             CONSTANT      00000006              6
TX9                               CONSTANT      00000006              6
TX9D                              CONSTANT      00000000              0
TXD8                              CONSTANT      00000000              0
TXEN                              CONSTANT      00000005              5
gpasm-1.5.0 #1285 (Sep 12 2016) obj\Debug\PB_   8-4-2020  19:47:27          PAGE 52


SYMBOL TABLE
  LABEL                              TYPE        VALUE         VALUE          VALUE
                                                 (hex)         (dec)          (text)

TXIE                              CONSTANT      00000004              4
TXIF                              CONSTANT      00000004              4
TXREG                             CONSTANT      00000019             25
TXSTA                             CONSTANT      00000098            152
UA                                CONSTANT      00000001              1
W                                 CONSTANT      00000000              0
WCOL                              CONSTANT      00000007              7
WR                                CONSTANT      00000001              1
WREN                              CONSTANT      00000002              2
WRERR                             CONSTANT      00000003              3
WSAVE                             EXTERNAL      00000000              0
Z                                 CONSTANT      00000002              2
_00001_DS_                        ADDRESS       0000004C             76
_00002_DS_                        ADDRESS       00000114            276
_00003_DS_                        ADDRESS       00000016             22
_00004_DS_                        ADDRESS       0000007D            125
_00105_DS_                        ADDRESS       0000001B             27
_00106_DS_                        ADDRESS       00000026             38
_00107_DS_                        ADDRESS       00000031             49
_00108_DS_                        ADDRESS       0000003C             60
_00110_DS_                        ADDRESS       00000046             70
_00112_DS_                        ADDRESS       00000082            130
_00114_DS_                        ADDRESS       000000B5            181
_00116_DS_                        ADDRESS       000000E6            230
_00128_DS_                        ADDRESS       00000017             23
_00130_DS_                        ADDRESS       0000007E            126
_00135_DS_                        ADDRESS       00000051             81
_00136_DS_                        ADDRESS       0000006A            106
_00137_DS_                        ADDRESS       00000083            131
_00138_DS_                        ADDRESS       0000009C            156
_00140_DS_                        ADDRESS       000000B4            180
_00141_DS_                        ADDRESS       00000119            281
_00145_DS_                        ADDRESS       0000012F            303
_00148_DS_                        ADDRESS       00000142            322
_00152_DS_                        ADDRESS       0000015A            346
_00158_DS_                        ADDRESS       00000007              7
_00159_DS_                        ADDRESS       0000016D            365
_00200_DS_                        ADDRESS       0000004D             77
_00202_DS_                        ADDRESS       00000115            277
_BODEN_OFF                        CONSTANT      00003FBF          16319
_BODEN_ON                         CONSTANT      00003FFF          16383
_BOREN_OFF                        CONSTANT      00003FBF          16319
_BOREN_ON                         CONSTANT      00003FFF          16383
_CONFIG                           CONSTANT      00002007           8199
_CPD_OFF                          CONSTANT      00003FFF          16383
_CPD_ON                           CONSTANT      00003EFF          16127
_CP_ALL                           CONSTANT      00001FFF           8191
_CP_OFF                           CONSTANT      00003FFF          16383
_CP_ON                            CONSTANT      00001FFF           8191
_DEBUG_OFF                        CONSTANT      00003FFF          16383
_DEBUG_ON                         CONSTANT      000037FF          14335
_DEVID1                           CONSTANT      00002006           8198
gpasm-1.5.0 #1285 (Sep 12 2016) obj\Debug\PB_   8-4-2020  19:47:27          PAGE 53


SYMBOL TABLE
  LABEL                              TYPE        VALUE         VALUE          VALUE
                                                 (hex)         (dec)          (text)

_FOSC_EXTRC                       CONSTANT      00003FFF          16383
_FOSC_HS                          CONSTANT      00003FFE          16382
_FOSC_LP                          CONSTANT      00003FFC          16380
_FOSC_XT                          CONSTANT      00003FFD          16381
_GPIO_GET_PORT_STATE              EXTERNAL      00000000              0
_GPIO_INIT_PORT_PIN               EXTERNAL      00000000              0
_HS_OSC                           CONSTANT      00003FFE          16382
_IDLOC0                           CONSTANT      00002000           8192
_IDLOC1                           CONSTANT      00002001           8193
_IDLOC2                           CONSTANT      00002002           8194
_IDLOC3                           CONSTANT      00002003           8195
_LP_OSC                           CONSTANT      00003FFC          16380
_LVP_OFF                          CONSTANT      00003F7F          16255
_LVP_ON                           CONSTANT      00003FFF          16383
_PB_DRIVER_GET_STATE              GLOBAL        00000000              0
_PB_DRIVER_INIT                   GLOBAL        00000000              0
_PB_DRIVER_UPDATE                 GLOBAL        00000000              0
_PWRTE_OFF                        CONSTANT      00003FFF          16383
_PWRTE_ON                         CONSTANT      00003FF7          16375
_RC_OSC                           CONSTANT      00003FFF          16383
_S_PB_driver__PB_DRIVER_GET_STATE_0009  ADDRESS       00000009              9
_S_PB_driver__PB_DRIVER_INIT_0023  ADDRESS       00000023             35
_S_PB_driver__PB_DRIVER_INIT_002E  ADDRESS       0000002E             46
_S_PB_driver__PB_DRIVER_INIT_0039  ADDRESS       00000039             57
_S_PB_driver__PB_DRIVER_INIT_0044  ADDRESS       00000044             68
_S_PB_driver__PB_DRIVER_INIT_004E  ADDRESS       0000004E             78
_S_PB_driver__PB_DRIVER_UPDATE_0057  ADDRESS       00000057             87
_S_PB_driver__PB_DRIVER_UPDATE_0070  ADDRESS       00000070            112
_S_PB_driver__PB_DRIVER_UPDATE_0089  ADDRESS       00000089            137
_S_PB_driver__PB_DRIVER_UPDATE_00A2  ADDRESS       000000A2            162
_WDTE_OFF                         CONSTANT      00003FFB          16379
_WDTE_ON                          CONSTANT      00003FFF          16383
_WDT_OFF                          CONSTANT      00003FFB          16379
_WDT_ON                           CONSTANT      00003FFF          16383
_WRT_1FOURTH                      CONSTANT      00003BFF          15359
_WRT_256                          CONSTANT      00003DFF          15871
_WRT_HALF                         CONSTANT      000039FF          14847
_WRT_OFF                          CONSTANT      00003FFF          16383
_XT_OSC                           CONSTANT      00003FFD          16381
__14_BIT                          CONSTANT      00000001              1
__16F877A                         CONSTANT      00000001              1
__ACTIVE_BANK_ADDR                VARIABLE      FFFFFFFF             -1
__ACTIVE_PAGE_ADDR                VARIABLE      FFFFFFFF             -1
__ASSUMED_BANK_ADDR               VARIABLE      FFFFFFFF             -1
__BANK_0                          CONSTANT      00000000              0
__BANK_1                          CONSTANT      00000080            128
__BANK_2                          CONSTANT      00000100            256
__BANK_3                          CONSTANT      00000180            384
__BANK_BITS                       CONSTANT      00000180            384
__BANK_FIRST                      CONSTANT      00000000              0
__BANK_INV                        CONSTANT      FFFFFFFF             -1
__BANK_LAST                       CONSTANT      00000180            384
gpasm-1.5.0 #1285 (Sep 12 2016) obj\Debug\PB_   8-4-2020  19:47:27          PAGE 54


SYMBOL TABLE
  LABEL                              TYPE        VALUE         VALUE          VALUE
                                                 (hex)         (dec)          (text)

__BANK_MASK                       CONSTANT      0000007F            127
__BANK_SHIFT                      CONSTANT      00000007              7
__BANK_SIZE                       CONSTANT      00000080            128
__CODE_END                        CONSTANT      00001FFF           8191
__CODE_START                      CONSTANT      00000000              0
__COMMON_RAM_END                  CONSTANT      0000007F            127
__COMMON_RAM_START                CONSTANT      00000070            112
__CONFIG_END                      CONSTANT      00002007           8199
__CONFIG_START                    CONSTANT      00002007           8199
__EEPROM_END                      CONSTANT      000021FF           8703
__EEPROM_START                    CONSTANT      00002100           8448
__GPUTILS_SVN_VERSION             CONSTANT      00000505           1285
__GPUTILS_VERSION_MAJOR           CONSTANT      00000001              1
__GPUTILS_VERSION_MICRO           CONSTANT      00000000              0
__GPUTILS_VERSION_MINOR           CONSTANT      00000005              5
__IDLOCS_END                      CONSTANT      00002003           8195
__IDLOCS_START                    CONSTANT      00002000           8192
__NUM_BANKS                       CONSTANT      00000004              4
__NUM_PAGES                       CONSTANT      00000004              4
__PAGE_0                          CONSTANT      00000000              0
__PAGE_1                          CONSTANT      00000800           2048
__PAGE_2                          CONSTANT      00001000           4096
__PAGE_3                          CONSTANT      00001800           6144
__PAGE_BITS                       CONSTANT      00001800           6144
__PAGE_FIRST                      CONSTANT      00000000              0
__PAGE_INV                        CONSTANT      FFFFFFFF             -1
__PAGE_LAST                       CONSTANT      00001800           6144
__PAGE_MASK                       CONSTANT      000007FF           2047
__PAGE_SHIFT                      CONSTANT      0000000B             11
__PAGE_SIZE                       CONSTANT      00000800           2048
__VECTOR_INT                      CONSTANT      00000004              4
__VECTOR_RESET                    CONSTANT      00000000              0
__WHILE_LOOP_COUNT_MAX            CONSTANT      000000FF            255
__muluchar                        EXTERNAL      00000000              0
_arr                              STATIC        00000000              0
r0x100C                           STATIC        00000012             18
r0x100D                           STATIC        00000013             19
r0x100F                           STATIC        00000006              6
r0x101A                           STATIC        00000011             17
r0x101B                           STATIC        00000000              0
r0x101C                           STATIC        00000001              1
r0x101D                           STATIC        00000002              2
r0x101E                           STATIC        00000003              3
r0x101F                           STATIC        00000004              4
r0x1010                           STATIC        00000007              7
r0x1011                           STATIC        00000008              8
r0x1012                           STATIC        00000009              9
r0x1013                           STATIC        0000000A             10
r0x1014                           STATIC        0000000B             11
r0x1015                           STATIC        0000000C             12
r0x1016                           STATIC        0000000D             13
r0x1017                           STATIC        0000000E             14
gpasm-1.5.0 #1285 (Sep 12 2016) obj\Debug\PB_   8-4-2020  19:47:27          PAGE 55


SYMBOL TABLE
  LABEL                              TYPE        VALUE         VALUE          VALUE
                                                 (hex)         (dec)          (text)

r0x1018                           STATIC        0000000F             15
r0x1019                           STATIC        00000010             16
r0x1020                           STATIC        00000005              5

Errors   :     0
Warnings :     0 reported,     0 suppressed
Messages :     0 reported,     0 suppressed

